<?xml version="1.0"?>
<?xml-stylesheet type="text/xsl" href="pdml2html.xsl"?>
<!-- You can find pdml2html.xsl in /usr/share/wireshark or at http://anonsvn.wireshark.org/trunk/wireshark/pdml2html.xsl. -->
<pdml version="0" creator="wireshark/1.10.6" time="Sun Jun  7 11:50:12 2015" capture_file="ADSecurityOrg-MS14068-Exploit-KRBPackets.pcapng">
<packet>
  <proto name="geninfo" pos="0" showname="General information" size="350">
    <field name="num" pos="0" show="1" showname="Number" value="1" size="350"/>
    <field name="len" pos="0" show="350" showname="Frame Length" value="15e" size="350"/>
    <field name="caplen" pos="0" show="350" showname="Captured Length" value="15e" size="350"/>
    <field name="timestamp" pos="0" show="Dec  7, 2014 18:44:25.992299000 CET" showname="Captured Time" value="1417974265.992299000" size="350"/>
  </proto>
  <proto name="frame" showname="Frame 1: 350 bytes on wire (2800 bits), 350 bytes captured (2800 bits) on interface 0" size="350" pos="0">
    <field name="frame.interface_id" showname="Interface id: 0" size="0" pos="0" show="0"/>
    <field name="frame.encap_type" showname="Encapsulation type: Ethernet (1)" size="0" pos="0" show="1"/>
    <field name="frame.time" showname="Arrival Time: Dec  7, 2014 18:44:25.992299000 CET" size="0" pos="0" show="Dec  7, 2014 18:44:25.992299000"/>
    <field name="frame.offset_shift" showname="Time shift for this packet: 0.000000000 seconds" size="0" pos="0" show="0.000000000"/>
    <field name="frame.time_epoch" showname="Epoch Time: 1417974265.992299000 seconds" size="0" pos="0" show="1417974265.992299000"/>
    <field name="frame.time_delta" showname="Time delta from previous captured frame: 0.000000000 seconds" size="0" pos="0" show="0.000000000"/>
    <field name="frame.time_delta_displayed" showname="Time delta from previous displayed frame: 0.000000000 seconds" size="0" pos="0" show="0.000000000"/>
    <field name="frame.time_relative" showname="Time since reference or first frame: 0.000000000 seconds" size="0" pos="0" show="0.000000000"/>
    <field name="frame.number" showname="Frame Number: 1" size="0" pos="0" show="1"/>
    <field name="frame.len" showname="Frame Length: 350 bytes (2800 bits)" size="0" pos="0" show="350"/>
    <field name="frame.cap_len" showname="Capture Length: 350 bytes (2800 bits)" size="0" pos="0" show="350"/>
    <field name="frame.marked" showname="Frame is marked: False" size="0" pos="0" show="0"/>
    <field name="frame.ignored" showname="Frame is ignored: False" size="0" pos="0" show="0"/>
    <field name="frame.protocols" showname="Protocols in frame: eth:ip:tcp:kerberos" size="0" pos="0" show="eth:ip:tcp:kerberos"/>
  </proto>
  <proto name="eth" showname="Ethernet II, Src: Microsof_17:c1:05 (00:15:5d:17:c1:05), Dst: Microsof_17:c1:08 (00:15:5d:17:c1:08)" size="14" pos="0">
    <field name="eth.dst" showname="Destination: Microsof_17:c1:08 (00:15:5d:17:c1:08)" size="6" pos="0" show="00:15:5d:17:c1:08" value="00155d17c108">
      <field name="eth.addr" showname="Address: Microsof_17:c1:08 (00:15:5d:17:c1:08)" size="6" pos="0" show="00:15:5d:17:c1:08" value="00155d17c108"/>
      <field name="eth.lg" showname=".... ..0. .... .... .... .... = LG bit: Globally unique address (factory default)" size="3" pos="0" show="0" value="0" unmaskedvalue="00155d"/>
      <field name="eth.ig" showname=".... ...0 .... .... .... .... = IG bit: Individual address (unicast)" size="3" pos="0" show="0" value="0" unmaskedvalue="00155d"/>
    </field>
    <field name="eth.src" showname="Source: Microsof_17:c1:05 (00:15:5d:17:c1:05)" size="6" pos="6" show="00:15:5d:17:c1:05" value="00155d17c105">
      <field name="eth.addr" showname="Address: Microsof_17:c1:05 (00:15:5d:17:c1:05)" size="6" pos="6" show="00:15:5d:17:c1:05" value="00155d17c105"/>
      <field name="eth.lg" showname=".... ..0. .... .... .... .... = LG bit: Globally unique address (factory default)" size="3" pos="6" show="0" value="0" unmaskedvalue="00155d"/>
      <field name="eth.ig" showname=".... ...0 .... .... .... .... = IG bit: Individual address (unicast)" size="3" pos="6" show="0" value="0" unmaskedvalue="00155d"/>
    </field>
    <field name="eth.type" showname="Type: IP (0x0800)" size="2" pos="12" show="0x0800" value="0800"/>
  </proto>
  <proto name="ip" showname="Internet Protocol Version 4, Src: 172.16.11.201 (172.16.11.201), Dst: 172.16.11.12 (172.16.11.12)" size="20" pos="14">
    <field name="ip.version" showname="Version: 4" size="1" pos="14" show="4" value="45"/>
    <field name="ip.hdr_len" showname="Header length: 20 bytes" size="1" pos="14" show="20" value="45"/>
    <field name="ip.dsfield" showname="Differentiated Services Field: 0x00 (DSCP 0x00: Default; ECN: 0x00: Not-ECT (Not ECN-Capable Transport))" size="1" pos="15" show="0" value="00">
      <field name="ip.dsfield.dscp" showname="0000 00.. = Differentiated Services Codepoint: Default (0x00)" size="1" pos="15" show="0x00" value="0" unmaskedvalue="00"/>
      <field name="ip.dsfield.ecn" showname=".... ..00 = Explicit Congestion Notification: Not-ECT (Not ECN-Capable Transport) (0x00)" size="1" pos="15" show="0x00" value="0" unmaskedvalue="00"/>
    </field>
    <field name="ip.len" showname="Total Length: 336" size="2" pos="16" show="336" value="0150"/>
    <field name="ip.id" showname="Identification: 0x290a (10506)" size="2" pos="18" show="0x290a" value="290a"/>
    <field name="ip.flags" showname="Flags: 0x02 (Don&apos;t Fragment)" size="1" pos="20" show="0x02" value="40">
      <field name="ip.flags.rb" showname="0... .... = Reserved bit: Not set" size="1" pos="20" show="0" value="40"/>
      <field name="ip.flags.df" showname=".1.. .... = Don&apos;t fragment: Set" size="1" pos="20" show="1" value="40"/>
      <field name="ip.flags.mf" showname="..0. .... = More fragments: Not set" size="1" pos="20" show="0" value="40"/>
    </field>
    <field name="ip.frag_offset" showname="Fragment offset: 0" size="2" pos="20" show="0" value="4000"/>
    <field name="ip.ttl" showname="Time to live: 128" size="1" pos="22" show="128" value="80"/>
    <field name="ip.proto" showname="Protocol: TCP (6)" size="1" pos="23" show="6" value="06"/>
    <field name="ip.checksum" showname="Header checksum: 0x61a8 [validation disabled]" size="2" pos="24" show="0x61a8" value="61a8">
      <field name="ip.checksum_good" showname="Good: False" size="2" pos="24" show="0" value="61a8"/>
      <field name="ip.checksum_bad" showname="Bad: False" size="2" pos="24" show="0" value="61a8"/>
    </field>
    <field name="ip.src" showname="Source: 172.16.11.201 (172.16.11.201)" size="4" pos="26" show="172.16.11.201" value="ac100bc9"/>
    <field name="ip.addr" showname="Source or Destination Address: 172.16.11.201 (172.16.11.201)" hide="yes" size="4" pos="26" show="172.16.11.201" value="ac100bc9"/>
    <field name="ip.src_host" showname="Source Host: 172.16.11.201" hide="yes" size="4" pos="26" show="172.16.11.201" value="ac100bc9"/>
    <field name="ip.host" showname="Source or Destination Host: 172.16.11.201" hide="yes" size="4" pos="26" show="172.16.11.201" value="ac100bc9"/>
    <field name="ip.dst" showname="Destination: 172.16.11.12 (172.16.11.12)" size="4" pos="30" show="172.16.11.12" value="ac100b0c"/>
    <field name="ip.addr" showname="Source or Destination Address: 172.16.11.12 (172.16.11.12)" hide="yes" size="4" pos="30" show="172.16.11.12" value="ac100b0c"/>
    <field name="ip.dst_host" showname="Destination Host: 172.16.11.12" hide="yes" size="4" pos="30" show="172.16.11.12" value="ac100b0c"/>
    <field name="ip.host" showname="Source or Destination Host: 172.16.11.12" hide="yes" size="4" pos="30" show="172.16.11.12" value="ac100b0c"/>
    <field name="" show="Source GeoIP: Unknown" size="4" pos="26" value="ac100bc9"/>
    <field name="" show="Destination GeoIP: Unknown" size="4" pos="30" value="ac100b0c"/>
  </proto>
  <proto name="tcp" showname="Transmission Control Protocol, Src Port: 62786 (62786), Dst Port: kerberos (88), Seq: 1, Ack: 1, Len: 296" size="20" pos="34">
    <field name="tcp.srcport" showname="Source port: 62786 (62786)" size="2" pos="34" show="62786" value="f542"/>
    <field name="tcp.dstport" showname="Destination port: kerberos (88)" size="2" pos="36" show="88" value="0058"/>
    <field name="tcp.port" showname="Source or Destination Port: 62786" hide="yes" size="2" pos="34" show="62786" value="f542"/>
    <field name="tcp.port" showname="Source or Destination Port: 88" hide="yes" size="2" pos="36" show="88" value="0058"/>
    <field name="tcp.stream" showname="Stream index: 0" size="0" pos="34" show="0"/>
    <field name="tcp.len" showname="TCP Segment Len: 296" hide="yes" size="1" pos="46" show="296" value="50"/>
    <field name="tcp.seq" showname="Sequence number: 1    (relative sequence number)" size="4" pos="38" show="1" value="1efbd706"/>
    <field name="tcp.nxtseq" showname="Next sequence number: 297    (relative sequence number)" size="0" pos="34" show="297"/>
    <field name="tcp.ack" showname="Acknowledgment number: 1    (relative ack number)" size="4" pos="42" show="1" value="bbf12f79"/>
    <field name="tcp.hdr_len" showname="Header length: 20 bytes" size="1" pos="46" show="20" value="50"/>
    <field name="tcp.flags" showname="Flags: 0x018 (PSH, ACK)" size="2" pos="46" show="0x0018" value="18" unmaskedvalue="5018">
      <field name="tcp.flags.res" showname="000. .... .... = Reserved: Not set" size="1" pos="46" show="0" value="0" unmaskedvalue="50"/>
      <field name="tcp.flags.ns" showname="...0 .... .... = Nonce: Not set" size="1" pos="46" show="0" value="0" unmaskedvalue="50"/>
      <field name="tcp.flags.cwr" showname=".... 0... .... = Congestion Window Reduced (CWR): Not set" size="1" pos="47" show="0" value="0" unmaskedvalue="18"/>
      <field name="tcp.flags.ecn" showname=".... .0.. .... = ECN-Echo: Not set" size="1" pos="47" show="0" value="0" unmaskedvalue="18"/>
      <field name="tcp.flags.urg" showname=".... ..0. .... = Urgent: Not set" size="1" pos="47" show="0" value="0" unmaskedvalue="18"/>
      <field name="tcp.flags.ack" showname=".... ...1 .... = Acknowledgment: Set" size="1" pos="47" show="1" value="1" unmaskedvalue="18"/>
      <field name="tcp.flags.push" showname=".... .... 1... = Push: Set" size="1" pos="47" show="1" value="1" unmaskedvalue="18"/>
      <field name="tcp.flags.reset" showname=".... .... .0.. = Reset: Not set" size="1" pos="47" show="0" value="0" unmaskedvalue="18"/>
      <field name="tcp.flags.syn" showname=".... .... ..0. = Syn: Not set" size="1" pos="47" show="0" value="0" unmaskedvalue="18"/>
      <field name="tcp.flags.fin" showname=".... .... ...0 = Fin: Not set" size="1" pos="47" show="0" value="0" unmaskedvalue="18"/>
    </field>
    <field name="tcp.window_size_value" showname="Window size value: 513" size="2" pos="48" show="513" value="0201"/>
    <field name="tcp.window_size" showname="Calculated window size: 513" size="2" pos="48" show="513" value="0201"/>
    <field name="tcp.window_size_scalefactor" showname="Window size scaling factor: -1 (unknown)" size="2" pos="48" show="-1" value="0201"/>
    <field name="tcp.checksum" showname="Checksum: 0x6dfc [validation disabled]" size="2" pos="50" show="0x6dfc" value="6dfc">
      <field name="tcp.checksum_good" showname="Good Checksum: False" size="2" pos="50" show="0" value="6dfc"/>
      <field name="tcp.checksum_bad" showname="Bad Checksum: False" size="2" pos="50" show="0" value="6dfc"/>
    </field>
    <field name="tcp.analysis" showname="SEQ/ACK analysis" size="0" pos="34" show="" value="">
      <field name="tcp.analysis.bytes_in_flight" showname="Bytes in flight: 296" size="0" pos="34" show="296"/>
    </field>
    <field name="tcp.pdu.size" showname="PDU Size: 296" size="296" pos="54" show="296" value="000001246a8201203082011ca103020105a20302010aa35f305d3048a103020102a241043f303da003020117a23604347ec9fb64b55df7d9aceb6e19c17119833d973b3833953655d019abff1a98ea124d98d94170fb77574f3cf6d0e6a7eded9f3e4bb33011a10402020080a20904073005a003010100a481ae3081aba00703050050800000a1193017a003020101a110300e1b0c6461727468736964696f7573a2141b124c41422e414453454355524954592e4f5247a3273025a003020101a11e301c1b066b72627467741b124c41422e414453454355524954592e4f5247a411180f31393730303130313030303030305aa511180f31393730303130313030303030305aa611180f31393730303130313030303030305aa70602047af023a3a8053003020117"/>
  </proto>
  <proto name="kerberos" showname="Kerberos AS-REQ" size="296" pos="54">
    <field name="" show="Record Mark: 292 bytes" size="4" pos="54" value="00000124">
      <field name="kerberos.rm.reserved" showname="0... .... .... .... .... .... .... .... = Reserved: Not set" size="4" pos="54" show="0" value="0" unmaskedvalue="00000124"/>
      <field name="kerberos.rm.length" showname=".000 0000 0000 0000 0000 0001 0010 0100 = Record Length: 292" size="4" pos="54" show="292" value="124" unmaskedvalue="00000124"/>
    </field>
    <field name="kerberos.pvno" showname="Pvno: 5" size="1" pos="70" show="5" value="05"/>
    <field name="kerberos.msg.type" showname="MSG Type: AS-REQ (10)" size="1" pos="75" show="10" value="0a"/>
    <field name="kerberos.padata" showname="padata: PA-ENC-TIMESTAMP PA-PAC-REQUEST" size="93" pos="80" show="" value="">
      <field name="kerberos.padata.type" showname="Type: PA-ENC-TIMESTAMP (2)" size="1" pos="86" show="2" value="02">
        <field name="kerberos.padata.value" showname="Value: 303da003020117a23604347ec9fb64b55df7d9aceb6e19c1... rc4-hmac" size="63" pos="91" show="30:3d:a0:03:02:01:17:a2:36:04:34:7e:c9:fb:64:b5:5d:f7:d9:ac:eb:6e:19:c1:71:19:83:3d:97:3b:38:33:95:36:55:d0:19:ab:ff:1a:98:ea:12:4d:98:d9:41:70:fb:77:57:4f:3c:f6:d0:e6:a7:ed:ed:9f:3e:4b:b3" value="303da003020117a23604347ec9fb64b55df7d9aceb6e19c17119833d973b3833953655d019abff1a98ea124d98d94170fb77574f3cf6d0e6a7eded9f3e4bb3">
          <field name="kerberos.etype" showname="Encryption type: rc4-hmac (23)" size="1" pos="97" show="23" value="17"/>
          <field name="kerberos.PA_ENC_TIMESTAMP.encrypted" showname="enc PA_ENC_TIMESTAMP: 7ec9fb64b55df7d9aceb6e19c17119833d973b3833953655..." size="52" pos="102" show="7e:c9:fb:64:b5:5d:f7:d9:ac:eb:6e:19:c1:71:19:83:3d:97:3b:38:33:95:36:55:d0:19:ab:ff:1a:98:ea:12:4d:98:d9:41:70:fb:77:57:4f:3c:f6:d0:e6:a7:ed:ed:9f:3e:4b:b3" value="7ec9fb64b55df7d9aceb6e19c17119833d973b3833953655d019abff1a98ea124d98d94170fb77574f3cf6d0e6a7eded9f3e4bb3"/>
        </field>
      </field>
      <field name="kerberos.padata.type" showname="Type: PA-PAC-REQUEST (128)" size="2" pos="160" show="128" value="0080">
        <field name="kerberos.padata.value" showname="Value: 3005a003010100" size="7" pos="166" show="30:05:a0:03:01:01:00" value="3005a003010100">
          <field name="kerberos.pac_request.flag" showname="PAC Request: False" size="1" pos="172" show="0" value="00"/>
        </field>
      </field>
    </field>
    <field name="kerberos.kdc_req_body" showname="KDC_REQ_BODY" size="174" pos="176" show="" value="">
      <field name="ber.bitstring.padding" showname="Padding: 0" size="1" pos="183" show="0" value="00"/>
      <field name="kerberos.kdcoptions" showname="KDCOptions: 50800000 (Forwardable, Proxiable, Renewable)" size="4" pos="184" show="50:80:00:00" value="50800000">
        <field name="kerberos.kdcoptions.forwardable" showname=".1.. .... .... .... .... .... .... .... = Forwardable: FORWARDABLE tickets are allowed/requested" size="4" pos="184" show="1" value="1" unmaskedvalue="50800000"/>
        <field name="kerberos.kdcoptions.forwarded" showname="..0. .... .... .... .... .... .... .... = Forwarded: This is NOT a forwarded ticket" size="4" pos="184" show="0" value="0" unmaskedvalue="50800000"/>
        <field name="kerberos.kdcoptions.proxiable" showname="...1 .... .... .... .... .... .... .... = Proxiable: PROXIABLE tickets are allowed/requested" size="4" pos="184" show="1" value="1" unmaskedvalue="50800000"/>
        <field name="kerberos.kdcoptions.proxy" showname=".... 0... .... .... .... .... .... .... = Proxy: This ticket has NOT been proxied" size="4" pos="184" show="0" value="0" unmaskedvalue="50800000"/>
        <field name="kerberos.kdcoptions.allow_postdate" showname=".... .0.. .... .... .... .... .... .... = Allow Postdate: We do NOT allow the ticket to be postdated" size="4" pos="184" show="0" value="0" unmaskedvalue="50800000"/>
        <field name="kerberos.kdcoptions.postdated" showname=".... ..0. .... .... .... .... .... .... = Postdated: This ticket is NOT postdated" size="4" pos="184" show="0" value="0" unmaskedvalue="50800000"/>
        <field name="kerberos.kdcoptions.renewable" showname=".... .... 1... .... .... .... .... .... = Renewable: This ticket is RENEWABLE" size="4" pos="184" show="1" value="1" unmaskedvalue="50800000"/>
        <field name="kerberos.kdcoptions.opt_hardware_auth" showname=".... .... ...0 .... .... .... .... .... = Opt HW Auth: False" size="4" pos="184" show="0" value="0" unmaskedvalue="50800000"/>
        <field name="kerberos.kdcoptions.constrained_delegation" showname=".... .... .... ..0. .... .... .... .... = Constrained Delegation: This is a normal request (no constrained delegation)" size="4" pos="184" show="0" value="0" unmaskedvalue="50800000"/>
        <field name="kerberos.kdcoptions.canonicalize" showname=".... .... .... ...0 .... .... .... .... = Canonicalize: This is NOT a canonicalized ticket request" size="4" pos="184" show="0" value="0" unmaskedvalue="50800000"/>
        <field name="kerberos.kdcoptions.disable_transited_check" showname=".... .... .... .... .... .... ..0. .... = Disable Transited Check: Transited checking is NOT disabled" size="4" pos="184" show="0" value="0" unmaskedvalue="50800000"/>
        <field name="kerberos.kdcoptions.renewable_ok" showname=".... .... .... .... .... .... ...0 .... = Renewable OK: We do NOT accept renewed tickets" size="4" pos="184" show="0" value="0" unmaskedvalue="50800000"/>
        <field name="kerberos.kdcoptions.enc_tkt_in_skey" showname=".... .... .... .... .... .... .... 0... = Enc-Tkt-in-Skey: Do NOT encrypt the tkt using the skey" size="4" pos="184" show="0" value="0" unmaskedvalue="50800000"/>
        <field name="kerberos.kdcoptions.renew" showname=".... .... .... .... .... .... .... ..0. = Renew: This is NOT a request to renew a ticket" size="4" pos="184" show="0" value="0" unmaskedvalue="50800000"/>
        <field name="kerberos.kdcoptions.validate" showname=".... .... .... .... .... .... .... ...0 = Validate: This is NOT a request to validate a postdated ticket" size="4" pos="184" show="0" value="0" unmaskedvalue="50800000"/>
      </field>
      <field name="kerberos.cname" showname="Client Name (Principal): darthsidious" size="25" pos="190" show="" value="">
        <field name="kerberos.name_type" showname="Name-type: Principal (1)" size="1" pos="196" show="1" value="01"/>
        <field name="kerberos.name_string" showname="Name: darthsidious" size="12" pos="203" show="darthsidious" value="6461727468736964696f7573"/>
      </field>
      <field name="kerberos.realm" showname="Realm: LAB.ADSECURITY.ORG" size="18" pos="219" show="LAB.ADSECURITY.ORG" value="4c41422e414453454355524954592e4f5247"/>
      <field name="kerberos.sname" showname="Server Name (Principal): krbtgt/LAB.ADSECURITY.ORG" size="39" pos="239" show="" value="">
        <field name="kerberos.name_type" showname="Name-type: Principal (1)" size="1" pos="245" show="1" value="01"/>
        <field name="kerberos.name_string" showname="Name: krbtgt" size="6" pos="252" show="krbtgt" value="6b7262746774"/>
        <field name="kerberos.name_string" showname="Name: LAB.ADSECURITY.ORG" size="18" pos="260" show="LAB.ADSECURITY.ORG" value="4c41422e414453454355524954592e4f5247"/>
      </field>
      <field name="kerberos.from" showname="from: 1970-01-01 00:00:00 (UTC)" size="15" pos="282" show="1970-01-01 00:00:00 (UTC)" value="31393730303130313030303030305a"/>
      <field name="kerberos.till" showname="till: 1970-01-01 00:00:00 (UTC)" size="15" pos="301" show="1970-01-01 00:00:00 (UTC)" value="31393730303130313030303030305a"/>
      <field name="kerberos.rtime" showname="rtime: 1970-01-01 00:00:00 (UTC)" size="15" pos="320" show="1970-01-01 00:00:00 (UTC)" value="31393730303130313030303030305a"/>
      <field name="kerberos.nonce" showname="Nonce: 2062558115" size="4" pos="339" show="2062558115" value="7af023a3"/>
      <field name="kerberos.etypes" showname="Encryption Types: rc4-hmac" size="3" pos="347" show="" value="">
        <field name="kerberos.etype" showname="Encryption type: rc4-hmac (23)" size="1" pos="349" show="23" value="17"/>
      </field>
    </field>
  </proto>
</packet>


<packet>
  <proto name="geninfo" pos="0" showname="General information" size="723">
    <field name="num" pos="0" show="2" showname="Number" value="2" size="723"/>
    <field name="len" pos="0" show="723" showname="Frame Length" value="2d3" size="723"/>
    <field name="caplen" pos="0" show="723" showname="Captured Length" value="2d3" size="723"/>
    <field name="timestamp" pos="0" show="Dec  7, 2014 18:44:25.995170000 CET" showname="Captured Time" value="1417974265.995170000" size="723"/>
  </proto>
  <proto name="frame" showname="Frame 2: 723 bytes on wire (5784 bits), 723 bytes captured (5784 bits) on interface 0" size="723" pos="0">
    <field name="frame.interface_id" showname="Interface id: 0" size="0" pos="0" show="0"/>
    <field name="frame.encap_type" showname="Encapsulation type: Ethernet (1)" size="0" pos="0" show="1"/>
    <field name="frame.time" showname="Arrival Time: Dec  7, 2014 18:44:25.995170000 CET" size="0" pos="0" show="Dec  7, 2014 18:44:25.995170000"/>
    <field name="frame.offset_shift" showname="Time shift for this packet: 0.000000000 seconds" size="0" pos="0" show="0.000000000"/>
    <field name="frame.time_epoch" showname="Epoch Time: 1417974265.995170000 seconds" size="0" pos="0" show="1417974265.995170000"/>
    <field name="frame.time_delta" showname="Time delta from previous captured frame: 0.002871000 seconds" size="0" pos="0" show="0.002871000"/>
    <field name="frame.time_delta_displayed" showname="Time delta from previous displayed frame: 0.002871000 seconds" size="0" pos="0" show="0.002871000"/>
    <field name="frame.time_relative" showname="Time since reference or first frame: 0.002871000 seconds" size="0" pos="0" show="0.002871000"/>
    <field name="frame.number" showname="Frame Number: 2" size="0" pos="0" show="2"/>
    <field name="frame.len" showname="Frame Length: 723 bytes (5784 bits)" size="0" pos="0" show="723"/>
    <field name="frame.cap_len" showname="Capture Length: 723 bytes (5784 bits)" size="0" pos="0" show="723"/>
    <field name="frame.marked" showname="Frame is marked: False" size="0" pos="0" show="0"/>
    <field name="frame.ignored" showname="Frame is ignored: False" size="0" pos="0" show="0"/>
    <field name="frame.protocols" showname="Protocols in frame: eth:ip:tcp:kerberos" size="0" pos="0" show="eth:ip:tcp:kerberos"/>
  </proto>
  <proto name="eth" showname="Ethernet II, Src: Microsof_17:c1:08 (00:15:5d:17:c1:08), Dst: Microsof_17:c1:05 (00:15:5d:17:c1:05)" size="14" pos="0">
    <field name="eth.dst" showname="Destination: Microsof_17:c1:05 (00:15:5d:17:c1:05)" size="6" pos="0" show="00:15:5d:17:c1:05" value="00155d17c105">
      <field name="eth.addr" showname="Address: Microsof_17:c1:05 (00:15:5d:17:c1:05)" size="6" pos="0" show="00:15:5d:17:c1:05" value="00155d17c105"/>
      <field name="eth.lg" showname=".... ..0. .... .... .... .... = LG bit: Globally unique address (factory default)" size="3" pos="0" show="0" value="0" unmaskedvalue="00155d"/>
      <field name="eth.ig" showname=".... ...0 .... .... .... .... = IG bit: Individual address (unicast)" size="3" pos="0" show="0" value="0" unmaskedvalue="00155d"/>
    </field>
    <field name="eth.src" showname="Source: Microsof_17:c1:08 (00:15:5d:17:c1:08)" size="6" pos="6" show="00:15:5d:17:c1:08" value="00155d17c108">
      <field name="eth.addr" showname="Address: Microsof_17:c1:08 (00:15:5d:17:c1:08)" size="6" pos="6" show="00:15:5d:17:c1:08" value="00155d17c108"/>
      <field name="eth.lg" showname=".... ..0. .... .... .... .... = LG bit: Globally unique address (factory default)" size="3" pos="6" show="0" value="0" unmaskedvalue="00155d"/>
      <field name="eth.ig" showname=".... ...0 .... .... .... .... = IG bit: Individual address (unicast)" size="3" pos="6" show="0" value="0" unmaskedvalue="00155d"/>
    </field>
    <field name="eth.type" showname="Type: IP (0x0800)" size="2" pos="12" show="0x0800" value="0800"/>
  </proto>
  <proto name="ip" showname="Internet Protocol Version 4, Src: 172.16.11.12 (172.16.11.12), Dst: 172.16.11.201 (172.16.11.201)" size="20" pos="14">
    <field name="ip.version" showname="Version: 4" size="1" pos="14" show="4" value="45"/>
    <field name="ip.hdr_len" showname="Header length: 20 bytes" size="1" pos="14" show="20" value="45"/>
    <field name="ip.dsfield" showname="Differentiated Services Field: 0x00 (DSCP 0x00: Default; ECN: 0x00: Not-ECT (Not ECN-Capable Transport))" size="1" pos="15" show="0" value="00">
      <field name="ip.dsfield.dscp" showname="0000 00.. = Differentiated Services Codepoint: Default (0x00)" size="1" pos="15" show="0x00" value="0" unmaskedvalue="00"/>
      <field name="ip.dsfield.ecn" showname=".... ..00 = Explicit Congestion Notification: Not-ECT (Not ECN-Capable Transport) (0x00)" size="1" pos="15" show="0x00" value="0" unmaskedvalue="00"/>
    </field>
    <field name="ip.len" showname="Total Length: 709" size="2" pos="16" show="709" value="02c5"/>
    <field name="ip.id" showname="Identification: 0x1174 (4468)" size="2" pos="18" show="0x1174" value="1174"/>
    <field name="ip.flags" showname="Flags: 0x02 (Don&apos;t Fragment)" size="1" pos="20" show="0x02" value="40">
      <field name="ip.flags.rb" showname="0... .... = Reserved bit: Not set" size="1" pos="20" show="0" value="40"/>
      <field name="ip.flags.df" showname=".1.. .... = Don&apos;t fragment: Set" size="1" pos="20" show="1" value="40"/>
      <field name="ip.flags.mf" showname="..0. .... = More fragments: Not set" size="1" pos="20" show="0" value="40"/>
    </field>
    <field name="ip.frag_offset" showname="Fragment offset: 0" size="2" pos="20" show="0" value="4000"/>
    <field name="ip.ttl" showname="Time to live: 128" size="1" pos="22" show="128" value="80"/>
    <field name="ip.proto" showname="Protocol: TCP (6)" size="1" pos="23" show="6" value="06"/>
    <field name="ip.checksum" showname="Header checksum: 0x0000 [validation disabled]" size="2" pos="24" show="0x0000" value="0000">
      <field name="ip.checksum_good" showname="Good: False" size="2" pos="24" show="0" value="0000"/>
      <field name="ip.checksum_bad" showname="Bad: False" size="2" pos="24" show="0" value="0000"/>
    </field>
    <field name="ip.src" showname="Source: 172.16.11.12 (172.16.11.12)" size="4" pos="26" show="172.16.11.12" value="ac100b0c"/>
    <field name="ip.addr" showname="Source or Destination Address: 172.16.11.12 (172.16.11.12)" hide="yes" size="4" pos="26" show="172.16.11.12" value="ac100b0c"/>
    <field name="ip.src_host" showname="Source Host: 172.16.11.12" hide="yes" size="4" pos="26" show="172.16.11.12" value="ac100b0c"/>
    <field name="ip.host" showname="Source or Destination Host: 172.16.11.12" hide="yes" size="4" pos="26" show="172.16.11.12" value="ac100b0c"/>
    <field name="ip.dst" showname="Destination: 172.16.11.201 (172.16.11.201)" size="4" pos="30" show="172.16.11.201" value="ac100bc9"/>
    <field name="ip.addr" showname="Source or Destination Address: 172.16.11.201 (172.16.11.201)" hide="yes" size="4" pos="30" show="172.16.11.201" value="ac100bc9"/>
    <field name="ip.dst_host" showname="Destination Host: 172.16.11.201" hide="yes" size="4" pos="30" show="172.16.11.201" value="ac100bc9"/>
    <field name="ip.host" showname="Source or Destination Host: 172.16.11.201" hide="yes" size="4" pos="30" show="172.16.11.201" value="ac100bc9"/>
    <field name="" show="Source GeoIP: Unknown" size="4" pos="26" value="ac100b0c"/>
    <field name="" show="Destination GeoIP: Unknown" size="4" pos="30" value="ac100bc9"/>
  </proto>
  <proto name="tcp" showname="Transmission Control Protocol, Src Port: kerberos (88), Dst Port: 62786 (62786), Seq: 1, Ack: 297, Len: 669" size="20" pos="34">
    <field name="tcp.srcport" showname="Source port: kerberos (88)" size="2" pos="34" show="88" value="0058"/>
    <field name="tcp.dstport" showname="Destination port: 62786 (62786)" size="2" pos="36" show="62786" value="f542"/>
    <field name="tcp.port" showname="Source or Destination Port: 88" hide="yes" size="2" pos="34" show="88" value="0058"/>
    <field name="tcp.port" showname="Source or Destination Port: 62786" hide="yes" size="2" pos="36" show="62786" value="f542"/>
    <field name="tcp.stream" showname="Stream index: 0" size="0" pos="34" show="0"/>
    <field name="tcp.len" showname="TCP Segment Len: 669" hide="yes" size="1" pos="46" show="669" value="50"/>
    <field name="tcp.seq" showname="Sequence number: 1    (relative sequence number)" size="4" pos="38" show="1" value="bbf12f79"/>
    <field name="tcp.nxtseq" showname="Next sequence number: 670    (relative sequence number)" size="0" pos="34" show="670"/>
    <field name="tcp.ack" showname="Acknowledgment number: 297    (relative ack number)" size="4" pos="42" show="297" value="1efbd82e"/>
    <field name="tcp.hdr_len" showname="Header length: 20 bytes" size="1" pos="46" show="20" value="50"/>
    <field name="tcp.flags" showname="Flags: 0x018 (PSH, ACK)" size="2" pos="46" show="0x0018" value="18" unmaskedvalue="5018">
      <field name="tcp.flags.res" showname="000. .... .... = Reserved: Not set" size="1" pos="46" show="0" value="0" unmaskedvalue="50"/>
      <field name="tcp.flags.ns" showname="...0 .... .... = Nonce: Not set" size="1" pos="46" show="0" value="0" unmaskedvalue="50"/>
      <field name="tcp.flags.cwr" showname=".... 0... .... = Congestion Window Reduced (CWR): Not set" size="1" pos="47" show="0" value="0" unmaskedvalue="18"/>
      <field name="tcp.flags.ecn" showname=".... .0.. .... = ECN-Echo: Not set" size="1" pos="47" show="0" value="0" unmaskedvalue="18"/>
      <field name="tcp.flags.urg" showname=".... ..0. .... = Urgent: Not set" size="1" pos="47" show="0" value="0" unmaskedvalue="18"/>
      <field name="tcp.flags.ack" showname=".... ...1 .... = Acknowledgment: Set" size="1" pos="47" show="1" value="1" unmaskedvalue="18"/>
      <field name="tcp.flags.push" showname=".... .... 1... = Push: Set" size="1" pos="47" show="1" value="1" unmaskedvalue="18"/>
      <field name="tcp.flags.reset" showname=".... .... .0.. = Reset: Not set" size="1" pos="47" show="0" value="0" unmaskedvalue="18"/>
      <field name="tcp.flags.syn" showname=".... .... ..0. = Syn: Not set" size="1" pos="47" show="0" value="0" unmaskedvalue="18"/>
      <field name="tcp.flags.fin" showname=".... .... ...0 = Fin: Not set" size="1" pos="47" show="0" value="0" unmaskedvalue="18"/>
    </field>
    <field name="tcp.window_size_value" showname="Window size value: 513" size="2" pos="48" show="513" value="0201"/>
    <field name="tcp.window_size" showname="Calculated window size: 513" size="2" pos="48" show="513" value="0201"/>
    <field name="tcp.window_size_scalefactor" showname="Window size scaling factor: -1 (unknown)" size="2" pos="48" show="-1" value="0201"/>
    <field name="tcp.checksum" showname="Checksum: 0x71ad [validation disabled]" size="2" pos="50" show="0x71ad" value="71ad">
      <field name="tcp.checksum_good" showname="Good Checksum: False" size="2" pos="50" show="0" value="71ad"/>
      <field name="tcp.checksum_bad" showname="Bad Checksum: False" size="2" pos="50" show="0" value="71ad"/>
    </field>
    <field name="tcp.analysis" showname="SEQ/ACK analysis" size="0" pos="34" show="" value="">
      <field name="tcp.analysis.acks_frame" showname="This is an ACK to the segment in frame: 1" size="0" pos="34" show="1"/>
      <field name="tcp.analysis.ack_rtt" showname="The RTT to ACK the segment was: 0.002871000 seconds" size="0" pos="34" show="0.002871000"/>
      <field name="tcp.analysis.bytes_in_flight" showname="Bytes in flight: 669" size="0" pos="34" show="669"/>
    </field>
    <field name="tcp.pdu.size" showname="PDU Size: 669" size="669" pos="54" show="669" value="000002996b82029530820291a003020105a10302010ba3141b124c41422e414453454355524954592e4f5247a4193017a003020101a110300e1b0c6461727468736964696f7573a58201306182012c30820128a003020105a1141b124c41422e414453454355524954592e4f5247a2273025a003020101a11e301c1b066b72627467741b124c41422e414453454355524954592e4f5247a381e13081dea003020117a103020102a281d10481ce5b8e025719b0779efc3c6a9a5a4f2312395bebfa6bcffb8ed84dc76065cea6f96167c71e1e8eb80ad6012dbf70d3b2a7298f29a7da2e02cfd5df9bb64d101b665a4beb0248c1b0c4425f667b1309a10c227eb143e75501aad6b1014690717f8b65df7a0ab13414bd9db0433128a2d8a9b6e3a9474eba497585de76446cf31db8adf416f968cc2057823dec70f9f6bc198f063f028098d6a379ed2cb82dbe5da336bcfe5e21d5be0a592ccaea3323b679afb2392282cfddf55b07bfacb12e8426503274b8d9cb086b154ab0bd264aa682011e3082011aa003020117a103020102a282010c048201088cf8eb5287e28a4006c064892150c4fb3e05ecc13548bec8e1eeb900dea5429cc6931bae9b8524490eb3a8801560871fe44355ed556202afbb39872e1bbb5c3c4f1b37dcd68fda89a23ebad917d4bbb0933edd94331598939e5d0c0c98c7e219a2e9dd6b877280d1bd7c51131413be577a167208bcc21e9fe7ae8f393278d740e72ca5c44c42d5cb0bf6bab0a36f1b88b7ddc4abbc6f152e652f6ba35c2955fb4132e11b7e566f3b422c3740f79847b77783d245a4e570b8a621b4ff6ff4815566446af70313ee78133707a76a4e4424783bd7c04920aa822a1a36b29f7e25cef186e6439fc46e42e23d6bd918969ef49b8388aef158e443b3a57dbde7ada631fbef7326f9046a9b"/>
  </proto>
  <proto name="kerberos" showname="Kerberos AS-REP" size="669" pos="54">
    <field name="" show="Record Mark: 665 bytes" size="4" pos="54" value="00000299">
      <field name="kerberos.rm.reserved" showname="0... .... .... .... .... .... .... .... = Reserved: Not set" size="4" pos="54" show="0" value="0" unmaskedvalue="00000299"/>
      <field name="kerberos.rm.length" showname=".000 0000 0000 0000 0000 0010 1001 1001 = Record Length: 665" size="4" pos="54" show="665" value="299" unmaskedvalue="00000299"/>
    </field>
    <field name="kerberos.pvno" showname="Pvno: 5" size="1" pos="70" show="5" value="05"/>
    <field name="kerberos.msg.type" showname="MSG Type: AS-REP (11)" size="1" pos="75" show="11" value="0b"/>
    <field name="kerberos.crealm" showname="Client Realm: LAB.ADSECURITY.ORG" size="18" pos="80" show="LAB.ADSECURITY.ORG" value="4c41422e414453454355524954592e4f5247"/>
    <field name="kerberos.cname" showname="Client Name (Principal): darthsidious" size="25" pos="100" show="" value="">
      <field name="kerberos.name_type" showname="Name-type: Principal (1)" size="1" pos="106" show="1" value="01"/>
      <field name="kerberos.name_string" showname="Name: darthsidious" size="12" pos="113" show="darthsidious" value="6461727468736964696f7573"/>
    </field>
    <field name="kerberos.ticket" showname="Ticket" size="300" pos="133" show="" value="">
      <field name="kerberos.tkt_vno" showname="Tkt-vno: 5" size="1" pos="141" show="5" value="05"/>
      <field name="kerberos.realm" showname="Realm: LAB.ADSECURITY.ORG" size="18" pos="146" show="LAB.ADSECURITY.ORG" value="4c41422e414453454355524954592e4f5247"/>
      <field name="kerberos.sname" showname="Server Name (Principal): krbtgt/LAB.ADSECURITY.ORG" size="39" pos="166" show="" value="">
        <field name="kerberos.name_type" showname="Name-type: Principal (1)" size="1" pos="172" show="1" value="01"/>
        <field name="kerberos.name_string" showname="Name: krbtgt" size="6" pos="179" show="krbtgt" value="6b7262746774"/>
        <field name="kerberos.name_string" showname="Name: LAB.ADSECURITY.ORG" size="18" pos="187" show="LAB.ADSECURITY.ORG" value="4c41422e414453454355524954592e4f5247"/>
      </field>
      <field name="kerberos.ticket.enc_part" showname="enc-part rc4-hmac" size="225" pos="208" show="" value="">
        <field name="kerberos.etype" showname="Encryption type: rc4-hmac (23)" size="1" pos="215" show="23" value="17"/>
        <field name="kerberos.kvno" showname="Kvno: 2" size="1" pos="220" show="2" value="02"/>
        <field name="kerberos.ticket.data" showname="enc-part: 5b8e025719b0779efc3c6a9a5a4f2312395bebfa6bcffb8e..." size="206" pos="227" show="5b:8e:02:57:19:b0:77:9e:fc:3c:6a:9a:5a:4f:23:12:39:5b:eb:fa:6b:cf:fb:8e:d8:4d:c7:60:65:ce:a6:f9:61:67:c7:1e:1e:8e:b8:0a:d6:01:2d:bf:70:d3:b2:a7:29:8f:29:a7:da:2e:02:cf:d5:df:9b:b6:4d:10:1b:66:5a:4b:eb:02:48:c1:b0:c4:42:5f:66:7b:13:09:a1:0c:22:7e:b1:43:e7:55:01:aa:d6:b1:01:46:90:71:7f:8b:65:df:7a:0a:b1:34:14:bd:9d:b0:43:31:28:a2:d8:a9:b6:e3:a9:47:4e:ba:49:75:85:de:76:44:6c:f3:1d:b8:ad:f4:16:f9:68:cc:20:57:82:3d:ec:70:f9:f6:bc:19:8f:06:3f:02:80:98:d6:a3:79:ed:2c:b8:2d:be:5d:a3:36:bc:fe:5e:21:d5:be:0a:59:2c:ca:ea:33:23:b6:79:af:b2:39:22:82:cf:dd:f5:5b:07:bf:ac:b1:2e:84:26:50:32:74:b8:d9:cb:08:6b:15:4a:b0:bd:26:4a" value="5b8e025719b0779efc3c6a9a5a4f2312395bebfa6bcffb8ed84dc76065cea6f96167c71e1e8eb80ad6012dbf70d3b2a7298f29a7da2e02cfd5df9bb64d101b665a4beb0248c1b0c4425f667b1309a10c227eb143e75501aad6b1014690717f8b65df7a0ab13414bd9db0433128a2d8a9b6e3a9474eba497585de76446cf31db8adf416f968cc2057823dec70f9f6bc198f063f028098d6a379ed2cb82dbe5da336bcfe5e21d5be0a592ccaea3323b679afb2392282cfddf55b07bfacb12e8426503274b8d9cb086b154ab0bd264a"/>
      </field>
    </field>
    <field name="kerberos.kdcrep.enc_part" showname="enc-part rc4-hmac" size="286" pos="437" show="" value="">
      <field name="kerberos.etype" showname="Encryption type: rc4-hmac (23)" size="1" pos="445" show="23" value="17"/>
      <field name="kerberos.kvno" showname="Kvno: 2" size="1" pos="450" show="2" value="02"/>
      <field name="kerberos.kdcrep.data" showname="enc-part: 8cf8eb5287e28a4006c064892150c4fb3e05ecc13548bec8..." size="264" pos="459" show="8c:f8:eb:52:87:e2:8a:40:06:c0:64:89:21:50:c4:fb:3e:05:ec:c1:35:48:be:c8:e1:ee:b9:00:de:a5:42:9c:c6:93:1b:ae:9b:85:24:49:0e:b3:a8:80:15:60:87:1f:e4:43:55:ed:55:62:02:af:bb:39:87:2e:1b:bb:5c:3c:4f:1b:37:dc:d6:8f:da:89:a2:3e:ba:d9:17:d4:bb:b0:93:3e:dd:94:33:15:98:93:9e:5d:0c:0c:98:c7:e2:19:a2:e9:dd:6b:87:72:80:d1:bd:7c:51:13:14:13:be:57:7a:16:72:08:bc:c2:1e:9f:e7:ae:8f:39:32:78:d7:40:e7:2c:a5:c4:4c:42:d5:cb:0b:f6:ba:b0:a3:6f:1b:88:b7:dd:c4:ab:bc:6f:15:2e:65:2f:6b:a3:5c:29:55:fb:41:32:e1:1b:7e:56:6f:3b:42:2c:37:40:f7:98:47:b7:77:83:d2:45:a4:e5:70:b8:a6:21:b4:ff:6f:f4:81:55:66:44:6a:f7:03:13:ee:78:13:37:07:a7:6a:4e:44:24:78:3b:d7:c0:49:20:aa:82:2a:1a:36:b2:9f:7e:25:ce:f1:86:e6:43:9f:c4:6e:42:e2:3d:6b:d9:18:96:9e:f4:9b:83:88:ae:f1:58:e4:43:b3:a5:7d:bd:e7:ad:a6:31:fb:ef:73:26:f9:04:6a:9b" value="8cf8eb5287e28a4006c064892150c4fb3e05ecc13548bec8e1eeb900dea5429cc6931bae9b8524490eb3a8801560871fe44355ed556202afbb39872e1bbb5c3c4f1b37dcd68fda89a23ebad917d4bbb0933edd94331598939e5d0c0c98c7e219a2e9dd6b877280d1bd7c51131413be577a167208bcc21e9fe7ae8f393278d740e72ca5c44c42d5cb0bf6bab0a36f1b88b7ddc4abbc6f152e652f6ba35c2955fb4132e11b7e566f3b422c3740f79847b77783d245a4e570b8a621b4ff6ff4815566446af70313ee78133707a76a4e4424783bd7c04920aa822a1a36b29f7e25cef186e6439fc46e42e23d6bd918969ef49b8388aef158e443b3a57dbde7ada631fbef7326f9046a9b"/>
    </field>
  </proto>
</packet>


<packet>
  <proto name="geninfo" pos="0" showname="General information" size="1503">
    <field name="num" pos="0" show="3" showname="Number" value="3" size="1503"/>
    <field name="len" pos="0" show="1503" showname="Frame Length" value="5df" size="1503"/>
    <field name="caplen" pos="0" show="1503" showname="Captured Length" value="5df" size="1503"/>
    <field name="timestamp" pos="0" show="Dec  7, 2014 18:44:26.043372000 CET" showname="Captured Time" value="1417974266.043372000" size="1503"/>
  </proto>
  <proto name="frame" showname="Frame 3: 1503 bytes on wire (12024 bits), 1503 bytes captured (12024 bits) on interface 0" size="1503" pos="0">
    <field name="frame.interface_id" showname="Interface id: 0" size="0" pos="0" show="0"/>
    <field name="frame.encap_type" showname="Encapsulation type: Ethernet (1)" size="0" pos="0" show="1"/>
    <field name="frame.time" showname="Arrival Time: Dec  7, 2014 18:44:26.043372000 CET" size="0" pos="0" show="Dec  7, 2014 18:44:26.043372000"/>
    <field name="frame.offset_shift" showname="Time shift for this packet: 0.000000000 seconds" size="0" pos="0" show="0.000000000"/>
    <field name="frame.time_epoch" showname="Epoch Time: 1417974266.043372000 seconds" size="0" pos="0" show="1417974266.043372000"/>
    <field name="frame.time_delta" showname="Time delta from previous captured frame: 0.048202000 seconds" size="0" pos="0" show="0.048202000"/>
    <field name="frame.time_delta_displayed" showname="Time delta from previous displayed frame: 0.048202000 seconds" size="0" pos="0" show="0.048202000"/>
    <field name="frame.time_relative" showname="Time since reference or first frame: 0.051073000 seconds" size="0" pos="0" show="0.051073000"/>
    <field name="frame.number" showname="Frame Number: 3" size="0" pos="0" show="3"/>
    <field name="frame.len" showname="Frame Length: 1503 bytes (12024 bits)" size="0" pos="0" show="1503"/>
    <field name="frame.cap_len" showname="Capture Length: 1503 bytes (12024 bits)" size="0" pos="0" show="1503"/>
    <field name="frame.marked" showname="Frame is marked: False" size="0" pos="0" show="0"/>
    <field name="frame.ignored" showname="Frame is ignored: False" size="0" pos="0" show="0"/>
    <field name="frame.protocols" showname="Protocols in frame: eth:ip:tcp:kerberos" size="0" pos="0" show="eth:ip:tcp:kerberos"/>
  </proto>
  <proto name="eth" showname="Ethernet II, Src: Microsof_17:c1:05 (00:15:5d:17:c1:05), Dst: Microsof_17:c1:08 (00:15:5d:17:c1:08)" size="14" pos="0">
    <field name="eth.dst" showname="Destination: Microsof_17:c1:08 (00:15:5d:17:c1:08)" size="6" pos="0" show="00:15:5d:17:c1:08" value="00155d17c108">
      <field name="eth.addr" showname="Address: Microsof_17:c1:08 (00:15:5d:17:c1:08)" size="6" pos="0" show="00:15:5d:17:c1:08" value="00155d17c108"/>
      <field name="eth.lg" showname=".... ..0. .... .... .... .... = LG bit: Globally unique address (factory default)" size="3" pos="0" show="0" value="0" unmaskedvalue="00155d"/>
      <field name="eth.ig" showname=".... ...0 .... .... .... .... = IG bit: Individual address (unicast)" size="3" pos="0" show="0" value="0" unmaskedvalue="00155d"/>
    </field>
    <field name="eth.src" showname="Source: Microsof_17:c1:05 (00:15:5d:17:c1:05)" size="6" pos="6" show="00:15:5d:17:c1:05" value="00155d17c105">
      <field name="eth.addr" showname="Address: Microsof_17:c1:05 (00:15:5d:17:c1:05)" size="6" pos="6" show="00:15:5d:17:c1:05" value="00155d17c105"/>
      <field name="eth.lg" showname=".... ..0. .... .... .... .... = LG bit: Globally unique address (factory default)" size="3" pos="6" show="0" value="0" unmaskedvalue="00155d"/>
      <field name="eth.ig" showname=".... ...0 .... .... .... .... = IG bit: Individual address (unicast)" size="3" pos="6" show="0" value="0" unmaskedvalue="00155d"/>
    </field>
    <field name="eth.type" showname="Type: IP (0x0800)" size="2" pos="12" show="0x0800" value="0800"/>
  </proto>
  <proto name="ip" showname="Internet Protocol Version 4, Src: 172.16.11.201 (172.16.11.201), Dst: 172.16.11.12 (172.16.11.12)" size="20" pos="14">
    <field name="ip.version" showname="Version: 4" size="1" pos="14" show="4" value="45"/>
    <field name="ip.hdr_len" showname="Header length: 20 bytes" size="1" pos="14" show="20" value="45"/>
    <field name="ip.dsfield" showname="Differentiated Services Field: 0x00 (DSCP 0x00: Default; ECN: 0x00: Not-ECT (Not ECN-Capable Transport))" size="1" pos="15" show="0" value="00">
      <field name="ip.dsfield.dscp" showname="0000 00.. = Differentiated Services Codepoint: Default (0x00)" size="1" pos="15" show="0x00" value="0" unmaskedvalue="00"/>
      <field name="ip.dsfield.ecn" showname=".... ..00 = Explicit Congestion Notification: Not-ECT (Not ECN-Capable Transport) (0x00)" size="1" pos="15" show="0x00" value="0" unmaskedvalue="00"/>
    </field>
    <field name="ip.len" showname="Total Length: 1489" size="2" pos="16" show="1489" value="05d1"/>
    <field name="ip.id" showname="Identification: 0x290e (10510)" size="2" pos="18" show="0x290e" value="290e"/>
    <field name="ip.flags" showname="Flags: 0x02 (Don&apos;t Fragment)" size="1" pos="20" show="0x02" value="40">
      <field name="ip.flags.rb" showname="0... .... = Reserved bit: Not set" size="1" pos="20" show="0" value="40"/>
      <field name="ip.flags.df" showname=".1.. .... = Don&apos;t fragment: Set" size="1" pos="20" show="1" value="40"/>
      <field name="ip.flags.mf" showname="..0. .... = More fragments: Not set" size="1" pos="20" show="0" value="40"/>
    </field>
    <field name="ip.frag_offset" showname="Fragment offset: 0" size="2" pos="20" show="0" value="4000"/>
    <field name="ip.ttl" showname="Time to live: 128" size="1" pos="22" show="128" value="80"/>
    <field name="ip.proto" showname="Protocol: TCP (6)" size="1" pos="23" show="6" value="06"/>
    <field name="ip.checksum" showname="Header checksum: 0x5d23 [validation disabled]" size="2" pos="24" show="0x5d23" value="5d23">
      <field name="ip.checksum_good" showname="Good: False" size="2" pos="24" show="0" value="5d23"/>
      <field name="ip.checksum_bad" showname="Bad: False" size="2" pos="24" show="0" value="5d23"/>
    </field>
    <field name="ip.src" showname="Source: 172.16.11.201 (172.16.11.201)" size="4" pos="26" show="172.16.11.201" value="ac100bc9"/>
    <field name="ip.addr" showname="Source or Destination Address: 172.16.11.201 (172.16.11.201)" hide="yes" size="4" pos="26" show="172.16.11.201" value="ac100bc9"/>
    <field name="ip.src_host" showname="Source Host: 172.16.11.201" hide="yes" size="4" pos="26" show="172.16.11.201" value="ac100bc9"/>
    <field name="ip.host" showname="Source or Destination Host: 172.16.11.201" hide="yes" size="4" pos="26" show="172.16.11.201" value="ac100bc9"/>
    <field name="ip.dst" showname="Destination: 172.16.11.12 (172.16.11.12)" size="4" pos="30" show="172.16.11.12" value="ac100b0c"/>
    <field name="ip.addr" showname="Source or Destination Address: 172.16.11.12 (172.16.11.12)" hide="yes" size="4" pos="30" show="172.16.11.12" value="ac100b0c"/>
    <field name="ip.dst_host" showname="Destination Host: 172.16.11.12" hide="yes" size="4" pos="30" show="172.16.11.12" value="ac100b0c"/>
    <field name="ip.host" showname="Source or Destination Host: 172.16.11.12" hide="yes" size="4" pos="30" show="172.16.11.12" value="ac100b0c"/>
    <field name="" show="Source GeoIP: Unknown" size="4" pos="26" value="ac100bc9"/>
    <field name="" show="Destination GeoIP: Unknown" size="4" pos="30" value="ac100b0c"/>
  </proto>
  <proto name="tcp" showname="Transmission Control Protocol, Src Port: 62787 (62787), Dst Port: kerberos (88), Seq: 1, Ack: 1, Len: 1449" size="20" pos="34">
    <field name="tcp.srcport" showname="Source port: 62787 (62787)" size="2" pos="34" show="62787" value="f543"/>
    <field name="tcp.dstport" showname="Destination port: kerberos (88)" size="2" pos="36" show="88" value="0058"/>
    <field name="tcp.port" showname="Source or Destination Port: 62787" hide="yes" size="2" pos="34" show="62787" value="f543"/>
    <field name="tcp.port" showname="Source or Destination Port: 88" hide="yes" size="2" pos="36" show="88" value="0058"/>
    <field name="tcp.stream" showname="Stream index: 1" size="0" pos="34" show="1"/>
    <field name="tcp.len" showname="TCP Segment Len: 1449" hide="yes" size="1" pos="46" show="1449" value="50"/>
    <field name="tcp.seq" showname="Sequence number: 1    (relative sequence number)" size="4" pos="38" show="1" value="f23aa6c4"/>
    <field name="tcp.nxtseq" showname="Next sequence number: 1450    (relative sequence number)" size="0" pos="34" show="1450"/>
    <field name="tcp.ack" showname="Acknowledgment number: 1    (relative ack number)" size="4" pos="42" show="1" value="a42244de"/>
    <field name="tcp.hdr_len" showname="Header length: 20 bytes" size="1" pos="46" show="20" value="50"/>
    <field name="tcp.flags" showname="Flags: 0x018 (PSH, ACK)" size="2" pos="46" show="0x0018" value="18" unmaskedvalue="5018">
      <field name="tcp.flags.res" showname="000. .... .... = Reserved: Not set" size="1" pos="46" show="0" value="0" unmaskedvalue="50"/>
      <field name="tcp.flags.ns" showname="...0 .... .... = Nonce: Not set" size="1" pos="46" show="0" value="0" unmaskedvalue="50"/>
      <field name="tcp.flags.cwr" showname=".... 0... .... = Congestion Window Reduced (CWR): Not set" size="1" pos="47" show="0" value="0" unmaskedvalue="18"/>
      <field name="tcp.flags.ecn" showname=".... .0.. .... = ECN-Echo: Not set" size="1" pos="47" show="0" value="0" unmaskedvalue="18"/>
      <field name="tcp.flags.urg" showname=".... ..0. .... = Urgent: Not set" size="1" pos="47" show="0" value="0" unmaskedvalue="18"/>
      <field name="tcp.flags.ack" showname=".... ...1 .... = Acknowledgment: Set" size="1" pos="47" show="1" value="1" unmaskedvalue="18"/>
      <field name="tcp.flags.push" showname=".... .... 1... = Push: Set" size="1" pos="47" show="1" value="1" unmaskedvalue="18"/>
      <field name="tcp.flags.reset" showname=".... .... .0.. = Reset: Not set" size="1" pos="47" show="0" value="0" unmaskedvalue="18"/>
      <field name="tcp.flags.syn" showname=".... .... ..0. = Syn: Not set" size="1" pos="47" show="0" value="0" unmaskedvalue="18"/>
      <field name="tcp.flags.fin" showname=".... .... ...0 = Fin: Not set" size="1" pos="47" show="0" value="0" unmaskedvalue="18"/>
    </field>
    <field name="tcp.window_size_value" showname="Window size value: 513" size="2" pos="48" show="513" value="0201"/>
    <field name="tcp.window_size" showname="Calculated window size: 513" size="2" pos="48" show="513" value="0201"/>
    <field name="tcp.window_size_scalefactor" showname="Window size scaling factor: -1 (unknown)" size="2" pos="48" show="-1" value="0201"/>
    <field name="tcp.checksum" showname="Checksum: 0x75e8 [validation disabled]" size="2" pos="50" show="0x75e8" value="75e8">
      <field name="tcp.checksum_good" showname="Good Checksum: False" size="2" pos="50" show="0" value="75e8"/>
      <field name="tcp.checksum_bad" showname="Bad Checksum: False" size="2" pos="50" show="0" value="75e8"/>
    </field>
    <field name="tcp.analysis" showname="SEQ/ACK analysis" size="0" pos="34" show="" value="">
      <field name="tcp.analysis.bytes_in_flight" showname="Bytes in flight: 1449" size="0" pos="34" show="1449"/>
    </field>
    <field name="tcp.pdu.size" showname="PDU Size: 1449" size="1449" pos="54" show="1449" value="000005a56c8205a13082059da103020105a20302010ca382022f3082022b30820214a103020101a282020b048202076e820203308201ffa003020105a10302010ea20703050000000000a38201306182012c30820128a003020105a1141b124c41422e414453454355524954592e4f5247a2273025a003020101a11e301c1b066b72627467741b124c41422e414453454355524954592e4f5247a381e13081dea003020117a103020102a281d10481ce5b8e025719b0779efc3c6a9a5a4f2312395bebfa6bcffb8ed84dc76065cea6f96167c71e1e8eb80ad6012dbf70d3b2a7298f29a7da2e02cfd5df9bb64d101b665a4beb0248c1b0c4425f667b1309a10c227eb143e75501aad6b1014690717f8b65df7a0ab13414bd9db0433128a2d8a9b6e3a9474eba497585de76446cf31db8adf416f968cc2057823dec70f9f6bc198f063f028098d6a379ed2cb82dbe5da336bcfe5e21d5be0a592ccaea3323b679afb2392282cfddf55b07bfacb12e8426503274b8d9cb086b154ab0bd264aa481b53081b2a003020117a281aa0481a7d606bae2ed83b02ad5f2c37ce0518d57dfbabad7eafeb619b77afba3a303aa33c281452818d6c4cf4bade4142b4c7f1748eb91f3345bd5f7ebddb290bbe78574fd69b9131523f1deb89f743a97bd691f01db8d155a4e40054743dabb98dc1b510585ad5bf148ebf0452da3e97ffd7520809b9f1f6d629f52f6f381600bfcf704cc29223c1fcfe2f6268b08258b7a577b57dddb4f5c2f96ccf00855141c90b01086833fd2ff2ea93011a10402020080a20904073005a003010100a482035c30820358a00703050050800000a2141b124c41422e414453454355524954592e4f5247a3273025a003020101a11e301c1b066b72627467741b124c41422e414453454355524954592e4f5247a411180f31393730303130313030303030305aa511180f31393730303130313030303030305aa611180f31393730303130313030303030305aa7060204100a82c1a8053003020117aa8202c4308202c0a003020117a28202b7048202b33cf8b44717bd55f32c24462c10b199376ba2e36391f52898a084732576f3fd7899031eb3a2995ac33f41b548dddda36e663127724a0cf92ce646078dd3a3781ee943abec9e7f4d79d1be541e27dc041cb5f5dadf4ee4d98f7563d9e34073444f7fad81de37fe55f026abbc20ebcc69b70ce25ebc29a8271eb042220f292dd7b6dc2571b8c8b27f77d58537bcfbfcff139d513d5c0f1e9448d20a3e33ef7adc6bec2e3a33c24b834318e069255cf84fd384ff62ae30686ef5e2fe641a8b9642aa54abe77393e8492a4f9dcea6614608b00d852d8864f73a999bfd194a0e225ce8eae71284713984267670538cf157877303db51ff7f004907f651d5289af5ed57f2581c9e0b6c13270fe486c0b858104db9034f418bedcd782b0aedf18e92b3479b4923dd86d54d236fffb8cd71ee27d1f22efd3a6df533183bf829b6e03b1608847f128c53906b5b52f6fc9b3b62d3ddad466d7664cfaf5087e1b0375d8322a38d081f880127b63c76959601193c72b4947ef3700eb2c50839b82077498813dfd12afd6a5e9495460575994c40ccca3c26888e8247930efc86025dbfd4e735df3a0c45ff9d5438be69e8126a78e4754271220e0e2337094edbd0cc63ecf9b20273ad0961a3d65c35c66be80c44b680f61283874ca616248e7b8b81e82e32698e82b071ae6f6f671b5e9065787836f12afbfc0ce6cd09d08e4d702d7bd5454bcefe4fb2034bc4aadef286e8215d28f2c6319d3c84d64766adb14e8649ab86e468dd5c8aeb9f7e0ba12c88a0609f76e3af72b8db3cdf93f9b0a4ec0f24d4efaebd750ba505ec3ee946683a38e8386707e0105328d6421d356b12fdbbd6663d56f61076bf8684850888139f69f24721a8589daf81c2d14d04b61943a79748a2c7a3a18fbdf447e1c6dc0853f96804a67fb09758ecc88a168445f4705be6eb315ec6cab8c0aff121a5f4a13a91c7da607f489f475b"/>
  </proto>
  <proto name="kerberos" showname="Kerberos TGS-REQ" size="1449" pos="54">
    <field name="" show="Record Mark: 1445 bytes" size="4" pos="54" value="000005a5">
      <field name="kerberos.rm.reserved" showname="0... .... .... .... .... .... .... .... = Reserved: Not set" size="4" pos="54" show="0" value="0" unmaskedvalue="000005a5"/>
      <field name="kerberos.rm.length" showname=".000 0000 0000 0000 0000 0101 1010 0101 = Record Length: 1445" size="4" pos="54" show="1445" value="5A5" unmaskedvalue="000005a5"/>
    </field>
    <field name="kerberos.pvno" showname="Pvno: 5" size="1" pos="70" show="5" value="05"/>
    <field name="kerberos.msg.type" showname="MSG Type: TGS-REQ (12)" size="1" pos="75" show="12" value="0c"/>
    <field name="kerberos.padata" showname="padata: PA-TGS-REQ PA-PAC-REQUEST" size="555" pos="84" show="" value="">
      <field name="kerberos.padata.type" showname="Type: PA-TGS-REQ (1)" size="1" pos="92" show="1" value="01">
        <field name="kerberos.padata.value" showname="Value: 6e820203308201ffa003020105a10302010ea20703050000... AP-REQ" size="519" pos="101" show="6e:82:02:03:30:82:01:ff:a0:03:02:01:05:a1:03:02:01:0e:a2:07:03:05:00:00:00:00:00:a3:82:01:30:61:82:01:2c:30:82:01:28:a0:03:02:01:05:a1:14:1b:12:4c:41:42:2e:41:44:53:45:43:55:52:49:54:59:2e:4f:52:47:a2:27:30:25:a0:03:02:01:01:a1:1e:30:1c:1b:06:6b:72:62:74:67:74:1b:12:4c:41:42:2e:41:44:53:45:43:55:52:49:54:59:2e:4f:52:47:a3:81:e1:30:81:de:a0:03:02:01:17:a1:03:02:01:02:a2:81:d1:04:81:ce:5b:8e:02:57:19:b0:77:9e:fc:3c:6a:9a:5a:4f:23:12:39:5b:eb:fa:6b:cf:fb:8e:d8:4d:c7:60:65:ce:a6:f9:61:67:c7:1e:1e:8e:b8:0a:d6:01:2d:bf:70:d3:b2:a7:29:8f:29:a7:da:2e:02:cf:d5:df:9b:b6:4d:10:1b:66:5a:4b:eb:02:48:c1:b0:c4:42:5f:66:7b:13:09:a1:0c:22:7e:b1:43:e7:55:01:aa:d6:b1:01:46:90:71:7f:8b:65:df:7a:0a:b1:34:14:bd:9d:b0:43:31:28:a2:d8:a9:b6:e3:a9:47:4e:ba:49:75:85:de:76:44:6c:f3:1d:b8:ad:f4:16:f9:68:cc:20:57:82:3d:ec:70:f9:f6:bc:19:8f:06:3f:02:80:98:d6:a3:79:ed:2c:b8:2d:be:5d:a3:36:bc:fe:5e:21:d5:be:0a:59:2c:ca:ea:33:23:b6:79:af:b2:39:22:82:cf:dd:f5:5b:07:bf:ac:b1:2e:84:26:50:32:74:b8:d9:cb:08:6b:15:4a:b0:bd:26:4a:a4:81:b5:30:81:b2:a0:03:02:01:17:a2:81:aa:04:81:a7:d6:06:ba:e2:ed:83:b0:2a:d5:f2:c3:7c:e0:51:8d:57:df:ba:ba:d7:ea:fe:b6:19:b7:7a:fb:a3:a3:03:aa:33:c2:81:45:28:18:d6:c4:cf:4b:ad:e4:14:2b:4c:7f:17:48:eb:91:f3:34:5b:d5:f7:eb:dd:b2:90:bb:e7:85:74:fd:69:b9:13:15:23:f1:de:b8:9f:74:3a:97:bd:69:1f:01:db:8d:15:5a:4e:40:05:47:43:da:bb:98:dc:1b:51:05:85:ad:5b:f1:48:eb:f0:45:2d:a3:e9:7f:fd:75:20:80:9b:9f:1f:6d:62:9f:52:f6:f3:81:60:0b:fc:f7:04:cc:29:22:3c:1f:cf:e2:f6:26:8b:08:25:8b:7a:57:7b:57:dd:db:4f:5c:2f:96:cc:f0:08:55:14:1c:90:b0:10:86:83:3f:d2:ff:2e:a9" value="6e820203308201ffa003020105a10302010ea20703050000000000a38201306182012c30820128a003020105a1141b124c41422e414453454355524954592e4f5247a2273025a003020101a11e301c1b066b72627467741b124c41422e414453454355524954592e4f5247a381e13081dea003020117a103020102a281d10481ce5b8e025719b0779efc3c6a9a5a4f2312395bebfa6bcffb8ed84dc76065cea6f96167c71e1e8eb80ad6012dbf70d3b2a7298f29a7da2e02cfd5df9bb64d101b665a4beb0248c1b0c4425f667b1309a10c227eb143e75501aad6b1014690717f8b65df7a0ab13414bd9db0433128a2d8a9b6e3a9474eba497585de76446cf31db8adf416f968cc2057823dec70f9f6bc198f063f028098d6a379ed2cb82dbe5da336bcfe5e21d5be0a592ccaea3323b679afb2392282cfddf55b07bfacb12e8426503274b8d9cb086b154ab0bd264aa481b53081b2a003020117a281aa0481a7d606bae2ed83b02ad5f2c37ce0518d57dfbabad7eafeb619b77afba3a303aa33c281452818d6c4cf4bade4142b4c7f1748eb91f3345bd5f7ebddb290bbe78574fd69b9131523f1deb89f743a97bd691f01db8d155a4e40054743dabb98dc1b510585ad5bf148ebf0452da3e97ffd7520809b9f1f6d629f52f6f381600bfcf704cc29223c1fcfe2f6268b08258b7a577b57dddb4f5c2f96ccf00855141c90b01086833fd2ff2ea9">
          <field name="kerberos.pvno" showname="Pvno: 5" size="1" pos="113" show="5" value="05"/>
          <field name="kerberos.msg.type" showname="MSG Type: AP-REQ (14)" size="1" pos="118" show="14" value="0e"/>
          <field name="ber.bitstring.padding" showname="Padding: 0" size="1" pos="123" show="0" value="00"/>
          <field name="kerberos.apoptions" showname="APOptions: 00000000" size="4" pos="124" show="00:00:00:00" value="00000000">
            <field name="kerberos.apoptions.reserved" showname="0... .... .... .... .... .... .... .... = reserved: RESERVED bit off" size="4" pos="124" show="0" value="0" unmaskedvalue="00000000"/>
            <field name="kerberos.apoptions.use_session_key" showname=".0.. .... .... .... .... .... .... .... = Use Session Key: Do NOT use the session key to encrypt the ticket" size="4" pos="124" show="0" value="0" unmaskedvalue="00000000"/>
            <field name="kerberos.apoptions.mutual_required" showname="..0. .... .... .... .... .... .... .... = Mutual required: Mutual authentication is NOT required" size="4" pos="124" show="0" value="0" unmaskedvalue="00000000"/>
          </field>
          <field name="kerberos.ticket" showname="Ticket" size="300" pos="136" show="" value="">
            <field name="kerberos.tkt_vno" showname="Tkt-vno: 5" size="1" pos="144" show="5" value="05"/>
            <field name="kerberos.realm" showname="Realm: LAB.ADSECURITY.ORG" size="18" pos="149" show="LAB.ADSECURITY.ORG" value="4c41422e414453454355524954592e4f5247"/>
            <field name="kerberos.sname" showname="Server Name (Principal): krbtgt/LAB.ADSECURITY.ORG" size="39" pos="169" show="" value="">
              <field name="kerberos.name_type" showname="Name-type: Principal (1)" size="1" pos="175" show="1" value="01"/>
              <field name="kerberos.name_string" showname="Name: krbtgt" size="6" pos="182" show="krbtgt" value="6b7262746774"/>
              <field name="kerberos.name_string" showname="Name: LAB.ADSECURITY.ORG" size="18" pos="190" show="LAB.ADSECURITY.ORG" value="4c41422e414453454355524954592e4f5247"/>
            </field>
            <field name="kerberos.ticket.enc_part" showname="enc-part rc4-hmac" size="225" pos="211" show="" value="">
              <field name="kerberos.etype" showname="Encryption type: rc4-hmac (23)" size="1" pos="218" show="23" value="17"/>
              <field name="kerberos.kvno" showname="Kvno: 2" size="1" pos="223" show="2" value="02"/>
              <field name="kerberos.ticket.data" showname="enc-part: 5b8e025719b0779efc3c6a9a5a4f2312395bebfa6bcffb8e..." size="206" pos="230" show="5b:8e:02:57:19:b0:77:9e:fc:3c:6a:9a:5a:4f:23:12:39:5b:eb:fa:6b:cf:fb:8e:d8:4d:c7:60:65:ce:a6:f9:61:67:c7:1e:1e:8e:b8:0a:d6:01:2d:bf:70:d3:b2:a7:29:8f:29:a7:da:2e:02:cf:d5:df:9b:b6:4d:10:1b:66:5a:4b:eb:02:48:c1:b0:c4:42:5f:66:7b:13:09:a1:0c:22:7e:b1:43:e7:55:01:aa:d6:b1:01:46:90:71:7f:8b:65:df:7a:0a:b1:34:14:bd:9d:b0:43:31:28:a2:d8:a9:b6:e3:a9:47:4e:ba:49:75:85:de:76:44:6c:f3:1d:b8:ad:f4:16:f9:68:cc:20:57:82:3d:ec:70:f9:f6:bc:19:8f:06:3f:02:80:98:d6:a3:79:ed:2c:b8:2d:be:5d:a3:36:bc:fe:5e:21:d5:be:0a:59:2c:ca:ea:33:23:b6:79:af:b2:39:22:82:cf:dd:f5:5b:07:bf:ac:b1:2e:84:26:50:32:74:b8:d9:cb:08:6b:15:4a:b0:bd:26:4a" value="5b8e025719b0779efc3c6a9a5a4f2312395bebfa6bcffb8ed84dc76065cea6f96167c71e1e8eb80ad6012dbf70d3b2a7298f29a7da2e02cfd5df9bb64d101b665a4beb0248c1b0c4425f667b1309a10c227eb143e75501aad6b1014690717f8b65df7a0ab13414bd9db0433128a2d8a9b6e3a9474eba497585de76446cf31db8adf416f968cc2057823dec70f9f6bc198f063f028098d6a379ed2cb82dbe5da336bcfe5e21d5be0a592ccaea3323b679afb2392282cfddf55b07bfacb12e8426503274b8d9cb086b154ab0bd264a"/>
            </field>
          </field>
          <field name="kerberos.authenticator" showname="Authenticator rc4-hmac" size="181" pos="439" show="" value="">
            <field name="kerberos.etype" showname="Encryption type: rc4-hmac (23)" size="1" pos="446" show="23" value="17"/>
            <field name="kerberos.authenticator.data" showname="Authenticator data: d606bae2ed83b02ad5f2c37ce0518d57dfbabad7eafeb619..." size="167" pos="453" show="d6:06:ba:e2:ed:83:b0:2a:d5:f2:c3:7c:e0:51:8d:57:df:ba:ba:d7:ea:fe:b6:19:b7:7a:fb:a3:a3:03:aa:33:c2:81:45:28:18:d6:c4:cf:4b:ad:e4:14:2b:4c:7f:17:48:eb:91:f3:34:5b:d5:f7:eb:dd:b2:90:bb:e7:85:74:fd:69:b9:13:15:23:f1:de:b8:9f:74:3a:97:bd:69:1f:01:db:8d:15:5a:4e:40:05:47:43:da:bb:98:dc:1b:51:05:85:ad:5b:f1:48:eb:f0:45:2d:a3:e9:7f:fd:75:20:80:9b:9f:1f:6d:62:9f:52:f6:f3:81:60:0b:fc:f7:04:cc:29:22:3c:1f:cf:e2:f6:26:8b:08:25:8b:7a:57:7b:57:dd:db:4f:5c:2f:96:cc:f0:08:55:14:1c:90:b0:10:86:83:3f:d2:ff:2e:a9" value="d606bae2ed83b02ad5f2c37ce0518d57dfbabad7eafeb619b77afba3a303aa33c281452818d6c4cf4bade4142b4c7f1748eb91f3345bd5f7ebddb290bbe78574fd69b9131523f1deb89f743a97bd691f01db8d155a4e40054743dabb98dc1b510585ad5bf148ebf0452da3e97ffd7520809b9f1f6d629f52f6f381600bfcf704cc29223c1fcfe2f6268b08258b7a577b57dddb4f5c2f96ccf00855141c90b01086833fd2ff2ea9"/>
          </field>
        </field>
      </field>
      <field name="kerberos.padata.type" showname="Type: PA-PAC-REQUEST (128)" size="2" pos="626" show="128" value="0080">
        <field name="kerberos.padata.value" showname="Value: 3005a003010100" size="7" pos="632" show="30:05:a0:03:01:01:00" value="3005a003010100">
          <field name="kerberos.pac_request.flag" showname="PAC Request: False" size="1" pos="638" show="0" value="00"/>
        </field>
      </field>
    </field>
    <field name="kerberos.kdc_req_body" showname="KDC_REQ_BODY rc4-hmac" size="860" pos="643" show="" value="">
      <field name="ber.bitstring.padding" showname="Padding: 0" size="1" pos="651" show="0" value="00"/>
      <field name="kerberos.kdcoptions" showname="KDCOptions: 50800000 (Forwardable, Proxiable, Renewable)" size="4" pos="652" show="50:80:00:00" value="50800000">
        <field name="kerberos.kdcoptions.forwardable" showname=".1.. .... .... .... .... .... .... .... = Forwardable: FORWARDABLE tickets are allowed/requested" size="4" pos="652" show="1" value="1" unmaskedvalue="50800000"/>
        <field name="kerberos.kdcoptions.forwarded" showname="..0. .... .... .... .... .... .... .... = Forwarded: This is NOT a forwarded ticket" size="4" pos="652" show="0" value="0" unmaskedvalue="50800000"/>
        <field name="kerberos.kdcoptions.proxiable" showname="...1 .... .... .... .... .... .... .... = Proxiable: PROXIABLE tickets are allowed/requested" size="4" pos="652" show="1" value="1" unmaskedvalue="50800000"/>
        <field name="kerberos.kdcoptions.proxy" showname=".... 0... .... .... .... .... .... .... = Proxy: This ticket has NOT been proxied" size="4" pos="652" show="0" value="0" unmaskedvalue="50800000"/>
        <field name="kerberos.kdcoptions.allow_postdate" showname=".... .0.. .... .... .... .... .... .... = Allow Postdate: We do NOT allow the ticket to be postdated" size="4" pos="652" show="0" value="0" unmaskedvalue="50800000"/>
        <field name="kerberos.kdcoptions.postdated" showname=".... ..0. .... .... .... .... .... .... = Postdated: This ticket is NOT postdated" size="4" pos="652" show="0" value="0" unmaskedvalue="50800000"/>
        <field name="kerberos.kdcoptions.renewable" showname=".... .... 1... .... .... .... .... .... = Renewable: This ticket is RENEWABLE" size="4" pos="652" show="1" value="1" unmaskedvalue="50800000"/>
        <field name="kerberos.kdcoptions.opt_hardware_auth" showname=".... .... ...0 .... .... .... .... .... = Opt HW Auth: False" size="4" pos="652" show="0" value="0" unmaskedvalue="50800000"/>
        <field name="kerberos.kdcoptions.constrained_delegation" showname=".... .... .... ..0. .... .... .... .... = Constrained Delegation: This is a normal request (no constrained delegation)" size="4" pos="652" show="0" value="0" unmaskedvalue="50800000"/>
        <field name="kerberos.kdcoptions.canonicalize" showname=".... .... .... ...0 .... .... .... .... = Canonicalize: This is NOT a canonicalized ticket request" size="4" pos="652" show="0" value="0" unmaskedvalue="50800000"/>
        <field name="kerberos.kdcoptions.disable_transited_check" showname=".... .... .... .... .... .... ..0. .... = Disable Transited Check: Transited checking is NOT disabled" size="4" pos="652" show="0" value="0" unmaskedvalue="50800000"/>
        <field name="kerberos.kdcoptions.renewable_ok" showname=".... .... .... .... .... .... ...0 .... = Renewable OK: We do NOT accept renewed tickets" size="4" pos="652" show="0" value="0" unmaskedvalue="50800000"/>
        <field name="kerberos.kdcoptions.enc_tkt_in_skey" showname=".... .... .... .... .... .... .... 0... = Enc-Tkt-in-Skey: Do NOT encrypt the tkt using the skey" size="4" pos="652" show="0" value="0" unmaskedvalue="50800000"/>
        <field name="kerberos.kdcoptions.renew" showname=".... .... .... .... .... .... .... ..0. = Renew: This is NOT a request to renew a ticket" size="4" pos="652" show="0" value="0" unmaskedvalue="50800000"/>
        <field name="kerberos.kdcoptions.validate" showname=".... .... .... .... .... .... .... ...0 = Validate: This is NOT a request to validate a postdated ticket" size="4" pos="652" show="0" value="0" unmaskedvalue="50800000"/>
      </field>
      <field name="kerberos.realm" showname="Realm: LAB.ADSECURITY.ORG" size="18" pos="660" show="LAB.ADSECURITY.ORG" value="4c41422e414453454355524954592e4f5247"/>
      <field name="kerberos.sname" showname="Server Name (Principal): krbtgt/LAB.ADSECURITY.ORG" size="39" pos="680" show="" value="">
        <field name="kerberos.name_type" showname="Name-type: Principal (1)" size="1" pos="686" show="1" value="01"/>
        <field name="kerberos.name_string" showname="Name: krbtgt" size="6" pos="693" show="krbtgt" value="6b7262746774"/>
        <field name="kerberos.name_string" showname="Name: LAB.ADSECURITY.ORG" size="18" pos="701" show="LAB.ADSECURITY.ORG" value="4c41422e414453454355524954592e4f5247"/>
      </field>
      <field name="kerberos.from" showname="from: 1970-01-01 00:00:00 (UTC)" size="15" pos="723" show="1970-01-01 00:00:00 (UTC)" value="31393730303130313030303030305a"/>
      <field name="kerberos.till" showname="till: 1970-01-01 00:00:00 (UTC)" size="15" pos="742" show="1970-01-01 00:00:00 (UTC)" value="31393730303130313030303030305a"/>
      <field name="kerberos.rtime" showname="rtime: 1970-01-01 00:00:00 (UTC)" size="15" pos="761" show="1970-01-01 00:00:00 (UTC)" value="31393730303130313030303030305a"/>
      <field name="kerberos.nonce" showname="Nonce: 269124289" size="4" pos="780" show="269124289" value="100a82c1"/>
      <field name="kerberos.etypes" showname="Encryption Types: rc4-hmac" size="3" pos="788" show="" value="">
        <field name="kerberos.etype" showname="Encryption type: rc4-hmac (23)" size="1" pos="790" show="23" value="17"/>
      </field>
      <field name="kerberos.etype" showname="Encryption type: rc4-hmac (23)" size="1" pos="803" show="23" value="17"/>
      <field name="kerberos.enc_authorization_data.encrypted" showname="enc-authorization-data: 3cf8b44717bd55f32c24462c10b199376ba2e36391f52898..." size="691" pos="812" show="3c:f8:b4:47:17:bd:55:f3:2c:24:46:2c:10:b1:99:37:6b:a2:e3:63:91:f5:28:98:a0:84:73:25:76:f3:fd:78:99:03:1e:b3:a2:99:5a:c3:3f:41:b5:48:dd:dd:a3:6e:66:31:27:72:4a:0c:f9:2c:e6:46:07:8d:d3:a3:78:1e:e9:43:ab:ec:9e:7f:4d:79:d1:be:54:1e:27:dc:04:1c:b5:f5:da:df:4e:e4:d9:8f:75:63:d9:e3:40:73:44:4f:7f:ad:81:de:37:fe:55:f0:26:ab:bc:20:eb:cc:69:b7:0c:e2:5e:bc:29:a8:27:1e:b0:42:22:0f:29:2d:d7:b6:dc:25:71:b8:c8:b2:7f:77:d5:85:37:bc:fb:fc:ff:13:9d:51:3d:5c:0f:1e:94:48:d2:0a:3e:33:ef:7a:dc:6b:ec:2e:3a:33:c2:4b:83:43:18:e0:69:25:5c:f8:4f:d3:84:ff:62:ae:30:68:6e:f5:e2:fe:64:1a:8b:96:42:aa:54:ab:e7:73:93:e8:49:2a:4f:9d:ce:a6:61:46:08:b0:0d:85:2d:88:64:f7:3a:99:9b:fd:19:4a:0e:22:5c:e8:ea:e7:12:84:71:39:84:26:76:70:53:8c:f1:57:87:73:03:db:51:ff:7f:00:49:07:f6:51:d5:28:9a:f5:ed:57:f2:58:1c:9e:0b:6c:13:27:0f:e4:86:c0:b8:58:10:4d:b9:03:4f:41:8b:ed:cd:78:2b:0a:ed:f1:8e:92:b3:47:9b:49:23:dd:86:d5:4d:23:6f:ff:b8:cd:71:ee:27:d1:f2:2e:fd:3a:6d:f5:33:18:3b:f8:29:b6:e0:3b:16:08:84:7f:12:8c:53:90:6b:5b:52:f6:fc:9b:3b:62:d3:dd:ad:46:6d:76:64:cf:af:50:87:e1:b0:37:5d:83:22:a3:8d:08:1f:88:01:27:b6:3c:76:95:96:01:19:3c:72:b4:94:7e:f3:70:0e:b2:c5:08:39:b8:20:77:49:88:13:df:d1:2a:fd:6a:5e:94:95:46:05:75:99:4c:40:cc:ca:3c:26:88:8e:82:47:93:0e:fc:86:02:5d:bf:d4:e7:35:df:3a:0c:45:ff:9d:54:38:be:69:e8:12:6a:78:e4:75:42:71:22:0e:0e:23:37:09:4e:db:d0:cc:63:ec:f9:b2:02:73:ad:09:61:a3:d6:5c:35:c6:6b:e8:0c:44:b6:80:f6:12:83:87:4c:a6:16:24:8e:7b:8b:81:e8:2e:32:69:8e:82:b0:71:ae:6f:6f:67:1b:5e:90:65:78:78:36:f1:2a:fb:fc:0c:e6:cd:09:d0:8e:4d:70:2d:7b:d5:45:4b:ce:fe:4f:b2:03:4b:c4:aa:de:f2:86:e8:21:5d:28:f2:c6:31:9d:3c:84:d6:47:66:ad:b1:4e:86:49:ab:86:e4:68:dd:5c:8a:eb:9f:7e:0b:a1:2c:88:a0:60:9f:76:e3:af:72:b8:db:3c:df:93:f9:b0:a4:ec:0f:24:d4:ef:ae:bd:75:0b:a5:05:ec:3e:e9:46:68:3a:38:e8:38:67:07:e0:10:53:28:d6:42:1d:35:6b:12:fd:bb:d6:66:3d:56:f6:10:76:bf:86:84:85:08:88:13:9f:69:f2:47:21:a8:58:9d:af:81:c2:d1:4d:04:b6:19:43:a7:97:48:a2:c7:a3:a1:8f:bd:f4:47:e1:c6:dc:08:53:f9:68:04:a6:7f:b0:97:58:ec:c8:8a:16:84:45:f4:70:5b:e6:eb:31:5e:c6:ca:b8:c0:af:f1:21:a5:f4:a1:3a:91:c7:da:60:7f:48:9f:47:5b" value="3cf8b44717bd55f32c24462c10b199376ba2e36391f52898a084732576f3fd7899031eb3a2995ac33f41b548dddda36e663127724a0cf92ce646078dd3a3781ee943abec9e7f4d79d1be541e27dc041cb5f5dadf4ee4d98f7563d9e34073444f7fad81de37fe55f026abbc20ebcc69b70ce25ebc29a8271eb042220f292dd7b6dc2571b8c8b27f77d58537bcfbfcff139d513d5c0f1e9448d20a3e33ef7adc6bec2e3a33c24b834318e069255cf84fd384ff62ae30686ef5e2fe641a8b9642aa54abe77393e8492a4f9dcea6614608b00d852d8864f73a999bfd194a0e225ce8eae71284713984267670538cf157877303db51ff7f004907f651d5289af5ed57f2581c9e0b6c13270fe486c0b858104db9034f418bedcd782b0aedf18e92b3479b4923dd86d54d236fffb8cd71ee27d1f22efd3a6df533183bf829b6e03b1608847f128c53906b5b52f6fc9b3b62d3ddad466d7664cfaf5087e1b0375d8322a38d081f880127b63c76959601193c72b4947ef3700eb2c50839b82077498813dfd12afd6a5e9495460575994c40ccca3c26888e8247930efc86025dbfd4e735df3a0c45ff9d5438be69e8126a78e4754271220e0e2337094edbd0cc63ecf9b20273ad0961a3d65c35c66be80c44b680f61283874ca616248e7b8b81e82e32698e82b071ae6f6f671b5e9065787836f12afbfc0ce6cd09d08e4d702d7bd5454bcefe4fb2034bc4aadef286e8215d28f2c6319d3c84d64766adb14e8649ab86e468dd5c8aeb9f7e0ba12c88a0609f76e3af72b8db3cdf93f9b0a4ec0f24d4efaebd750ba505ec3ee946683a38e8386707e0105328d6421d356b12fdbbd6663d56f61076bf8684850888139f69f24721a8589daf81c2d14d04b61943a79748a2c7a3a18fbdf447e1c6dc0853f96804a67fb09758ecc88a168445f4705be6eb315ec6cab8c0aff121a5f4a13a91c7da607f489f475b"/>
    </field>
  </proto>
</packet>


<packet>
  <proto name="geninfo" pos="0" showname="General information" size="1374">
    <field name="num" pos="0" show="4" showname="Number" value="4" size="1374"/>
    <field name="len" pos="0" show="1374" showname="Frame Length" value="55e" size="1374"/>
    <field name="caplen" pos="0" show="1374" showname="Captured Length" value="55e" size="1374"/>
    <field name="timestamp" pos="0" show="Dec  7, 2014 18:44:26.043980000 CET" showname="Captured Time" value="1417974266.043980000" size="1374"/>
  </proto>
  <proto name="frame" showname="Frame 4: 1374 bytes on wire (10992 bits), 1374 bytes captured (10992 bits) on interface 0" size="1374" pos="0">
    <field name="frame.interface_id" showname="Interface id: 0" size="0" pos="0" show="0"/>
    <field name="frame.encap_type" showname="Encapsulation type: Ethernet (1)" size="0" pos="0" show="1"/>
    <field name="frame.time" showname="Arrival Time: Dec  7, 2014 18:44:26.043980000 CET" size="0" pos="0" show="Dec  7, 2014 18:44:26.043980000"/>
    <field name="frame.offset_shift" showname="Time shift for this packet: 0.000000000 seconds" size="0" pos="0" show="0.000000000"/>
    <field name="frame.time_epoch" showname="Epoch Time: 1417974266.043980000 seconds" size="0" pos="0" show="1417974266.043980000"/>
    <field name="frame.time_delta" showname="Time delta from previous captured frame: 0.000608000 seconds" size="0" pos="0" show="0.000608000"/>
    <field name="frame.time_delta_displayed" showname="Time delta from previous displayed frame: 0.000608000 seconds" size="0" pos="0" show="0.000608000"/>
    <field name="frame.time_relative" showname="Time since reference or first frame: 0.051681000 seconds" size="0" pos="0" show="0.051681000"/>
    <field name="frame.number" showname="Frame Number: 4" size="0" pos="0" show="4"/>
    <field name="frame.len" showname="Frame Length: 1374 bytes (10992 bits)" size="0" pos="0" show="1374"/>
    <field name="frame.cap_len" showname="Capture Length: 1374 bytes (10992 bits)" size="0" pos="0" show="1374"/>
    <field name="frame.marked" showname="Frame is marked: False" size="0" pos="0" show="0"/>
    <field name="frame.ignored" showname="Frame is ignored: False" size="0" pos="0" show="0"/>
    <field name="frame.protocols" showname="Protocols in frame: eth:ip:tcp:kerberos" size="0" pos="0" show="eth:ip:tcp:kerberos"/>
  </proto>
  <proto name="eth" showname="Ethernet II, Src: Microsof_17:c1:08 (00:15:5d:17:c1:08), Dst: Microsof_17:c1:05 (00:15:5d:17:c1:05)" size="14" pos="0">
    <field name="eth.dst" showname="Destination: Microsof_17:c1:05 (00:15:5d:17:c1:05)" size="6" pos="0" show="00:15:5d:17:c1:05" value="00155d17c105">
      <field name="eth.addr" showname="Address: Microsof_17:c1:05 (00:15:5d:17:c1:05)" size="6" pos="0" show="00:15:5d:17:c1:05" value="00155d17c105"/>
      <field name="eth.lg" showname=".... ..0. .... .... .... .... = LG bit: Globally unique address (factory default)" size="3" pos="0" show="0" value="0" unmaskedvalue="00155d"/>
      <field name="eth.ig" showname=".... ...0 .... .... .... .... = IG bit: Individual address (unicast)" size="3" pos="0" show="0" value="0" unmaskedvalue="00155d"/>
    </field>
    <field name="eth.src" showname="Source: Microsof_17:c1:08 (00:15:5d:17:c1:08)" size="6" pos="6" show="00:15:5d:17:c1:08" value="00155d17c108">
      <field name="eth.addr" showname="Address: Microsof_17:c1:08 (00:15:5d:17:c1:08)" size="6" pos="6" show="00:15:5d:17:c1:08" value="00155d17c108"/>
      <field name="eth.lg" showname=".... ..0. .... .... .... .... = LG bit: Globally unique address (factory default)" size="3" pos="6" show="0" value="0" unmaskedvalue="00155d"/>
      <field name="eth.ig" showname=".... ...0 .... .... .... .... = IG bit: Individual address (unicast)" size="3" pos="6" show="0" value="0" unmaskedvalue="00155d"/>
    </field>
    <field name="eth.type" showname="Type: IP (0x0800)" size="2" pos="12" show="0x0800" value="0800"/>
  </proto>
  <proto name="ip" showname="Internet Protocol Version 4, Src: 172.16.11.12 (172.16.11.12), Dst: 172.16.11.201 (172.16.11.201)" size="20" pos="14">
    <field name="ip.version" showname="Version: 4" size="1" pos="14" show="4" value="45"/>
    <field name="ip.hdr_len" showname="Header length: 20 bytes" size="1" pos="14" show="20" value="45"/>
    <field name="ip.dsfield" showname="Differentiated Services Field: 0x00 (DSCP 0x00: Default; ECN: 0x00: Not-ECT (Not ECN-Capable Transport))" size="1" pos="15" show="0" value="00">
      <field name="ip.dsfield.dscp" showname="0000 00.. = Differentiated Services Codepoint: Default (0x00)" size="1" pos="15" show="0x00" value="0" unmaskedvalue="00"/>
      <field name="ip.dsfield.ecn" showname=".... ..00 = Explicit Congestion Notification: Not-ECT (Not ECN-Capable Transport) (0x00)" size="1" pos="15" show="0x00" value="0" unmaskedvalue="00"/>
    </field>
    <field name="ip.len" showname="Total Length: 1360" size="2" pos="16" show="1360" value="0550"/>
    <field name="ip.id" showname="Identification: 0x1178 (4472)" size="2" pos="18" show="0x1178" value="1178"/>
    <field name="ip.flags" showname="Flags: 0x02 (Don&apos;t Fragment)" size="1" pos="20" show="0x02" value="40">
      <field name="ip.flags.rb" showname="0... .... = Reserved bit: Not set" size="1" pos="20" show="0" value="40"/>
      <field name="ip.flags.df" showname=".1.. .... = Don&apos;t fragment: Set" size="1" pos="20" show="1" value="40"/>
      <field name="ip.flags.mf" showname="..0. .... = More fragments: Not set" size="1" pos="20" show="0" value="40"/>
    </field>
    <field name="ip.frag_offset" showname="Fragment offset: 0" size="2" pos="20" show="0" value="4000"/>
    <field name="ip.ttl" showname="Time to live: 128" size="1" pos="22" show="128" value="80"/>
    <field name="ip.proto" showname="Protocol: TCP (6)" size="1" pos="23" show="6" value="06"/>
    <field name="ip.checksum" showname="Header checksum: 0x0000 [validation disabled]" size="2" pos="24" show="0x0000" value="0000">
      <field name="ip.checksum_good" showname="Good: False" size="2" pos="24" show="0" value="0000"/>
      <field name="ip.checksum_bad" showname="Bad: False" size="2" pos="24" show="0" value="0000"/>
    </field>
    <field name="ip.src" showname="Source: 172.16.11.12 (172.16.11.12)" size="4" pos="26" show="172.16.11.12" value="ac100b0c"/>
    <field name="ip.addr" showname="Source or Destination Address: 172.16.11.12 (172.16.11.12)" hide="yes" size="4" pos="26" show="172.16.11.12" value="ac100b0c"/>
    <field name="ip.src_host" showname="Source Host: 172.16.11.12" hide="yes" size="4" pos="26" show="172.16.11.12" value="ac100b0c"/>
    <field name="ip.host" showname="Source or Destination Host: 172.16.11.12" hide="yes" size="4" pos="26" show="172.16.11.12" value="ac100b0c"/>
    <field name="ip.dst" showname="Destination: 172.16.11.201 (172.16.11.201)" size="4" pos="30" show="172.16.11.201" value="ac100bc9"/>
    <field name="ip.addr" showname="Source or Destination Address: 172.16.11.201 (172.16.11.201)" hide="yes" size="4" pos="30" show="172.16.11.201" value="ac100bc9"/>
    <field name="ip.dst_host" showname="Destination Host: 172.16.11.201" hide="yes" size="4" pos="30" show="172.16.11.201" value="ac100bc9"/>
    <field name="ip.host" showname="Source or Destination Host: 172.16.11.201" hide="yes" size="4" pos="30" show="172.16.11.201" value="ac100bc9"/>
    <field name="" show="Source GeoIP: Unknown" size="4" pos="26" value="ac100b0c"/>
    <field name="" show="Destination GeoIP: Unknown" size="4" pos="30" value="ac100bc9"/>
  </proto>
  <proto name="tcp" showname="Transmission Control Protocol, Src Port: kerberos (88), Dst Port: 62787 (62787), Seq: 1, Ack: 1450, Len: 1320" size="20" pos="34">
    <field name="tcp.srcport" showname="Source port: kerberos (88)" size="2" pos="34" show="88" value="0058"/>
    <field name="tcp.dstport" showname="Destination port: 62787 (62787)" size="2" pos="36" show="62787" value="f543"/>
    <field name="tcp.port" showname="Source or Destination Port: 88" hide="yes" size="2" pos="34" show="88" value="0058"/>
    <field name="tcp.port" showname="Source or Destination Port: 62787" hide="yes" size="2" pos="36" show="62787" value="f543"/>
    <field name="tcp.stream" showname="Stream index: 1" size="0" pos="34" show="1"/>
    <field name="tcp.len" showname="TCP Segment Len: 1320" hide="yes" size="1" pos="46" show="1320" value="50"/>
    <field name="tcp.seq" showname="Sequence number: 1    (relative sequence number)" size="4" pos="38" show="1" value="a42244de"/>
    <field name="tcp.nxtseq" showname="Next sequence number: 1321    (relative sequence number)" size="0" pos="34" show="1321"/>
    <field name="tcp.ack" showname="Acknowledgment number: 1450    (relative ack number)" size="4" pos="42" show="1450" value="f23aac6d"/>
    <field name="tcp.hdr_len" showname="Header length: 20 bytes" size="1" pos="46" show="20" value="50"/>
    <field name="tcp.flags" showname="Flags: 0x018 (PSH, ACK)" size="2" pos="46" show="0x0018" value="18" unmaskedvalue="5018">
      <field name="tcp.flags.res" showname="000. .... .... = Reserved: Not set" size="1" pos="46" show="0" value="0" unmaskedvalue="50"/>
      <field name="tcp.flags.ns" showname="...0 .... .... = Nonce: Not set" size="1" pos="46" show="0" value="0" unmaskedvalue="50"/>
      <field name="tcp.flags.cwr" showname=".... 0... .... = Congestion Window Reduced (CWR): Not set" size="1" pos="47" show="0" value="0" unmaskedvalue="18"/>
      <field name="tcp.flags.ecn" showname=".... .0.. .... = ECN-Echo: Not set" size="1" pos="47" show="0" value="0" unmaskedvalue="18"/>
      <field name="tcp.flags.urg" showname=".... ..0. .... = Urgent: Not set" size="1" pos="47" show="0" value="0" unmaskedvalue="18"/>
      <field name="tcp.flags.ack" showname=".... ...1 .... = Acknowledgment: Set" size="1" pos="47" show="1" value="1" unmaskedvalue="18"/>
      <field name="tcp.flags.push" showname=".... .... 1... = Push: Set" size="1" pos="47" show="1" value="1" unmaskedvalue="18"/>
      <field name="tcp.flags.reset" showname=".... .... .0.. = Reset: Not set" size="1" pos="47" show="0" value="0" unmaskedvalue="18"/>
      <field name="tcp.flags.syn" showname=".... .... ..0. = Syn: Not set" size="1" pos="47" show="0" value="0" unmaskedvalue="18"/>
      <field name="tcp.flags.fin" showname=".... .... ...0 = Fin: Not set" size="1" pos="47" show="0" value="0" unmaskedvalue="18"/>
    </field>
    <field name="tcp.window_size_value" showname="Window size value: 513" size="2" pos="48" show="513" value="0201"/>
    <field name="tcp.window_size" showname="Calculated window size: 513" size="2" pos="48" show="513" value="0201"/>
    <field name="tcp.window_size_scalefactor" showname="Window size scaling factor: -1 (unknown)" size="2" pos="48" show="-1" value="0201"/>
    <field name="tcp.checksum" showname="Checksum: 0x7438 [validation disabled]" size="2" pos="50" show="0x7438" value="7438">
      <field name="tcp.checksum_good" showname="Good Checksum: False" size="2" pos="50" show="0" value="7438"/>
      <field name="tcp.checksum_bad" showname="Bad Checksum: False" size="2" pos="50" show="0" value="7438"/>
    </field>
    <field name="tcp.analysis" showname="SEQ/ACK analysis" size="0" pos="34" show="" value="">
      <field name="tcp.analysis.acks_frame" showname="This is an ACK to the segment in frame: 3" size="0" pos="34" show="3"/>
      <field name="tcp.analysis.ack_rtt" showname="The RTT to ACK the segment was: 0.000608000 seconds" size="0" pos="34" show="0.000608000"/>
      <field name="tcp.analysis.bytes_in_flight" showname="Bytes in flight: 1320" size="0" pos="34" show="1320"/>
    </field>
    <field name="tcp.pdu.size" showname="PDU Size: 1320" size="1320" pos="54" show="1320" value="000005246d8205203082051ca003020105a10302010da3141b124c41422e414453454355524954592e4f5247a4193017a003020101a110300e1b0c6461727468736964696f7573a58203d5618203d1308203cda003020105a1141b124c41422e414453454355524954592e4f5247a2273025a003020101a11e301c1b066b72627467741b124c41422e414453454355524954592e4f5247a382038530820381a003020117a103020102a28203730482036f3746935290b5cfd4fddb2734bf49db0628a21885f80a58651127552b9090a48a94859362f69e25e37476b44a5167e9ba9083dbdfc0411774845409b248b83ab6f77b66d64768c3f8e8bbafb35e655ee334519c76fe816acffe5cbb3d3b7d74aeba6b9b7479bf2b36cf96e79e4b32119508fd57a4297e6e4e8524b401c5032b6de34f88465089cfc1c4785f4f58260e44420597538ae07f7e669a42d9849751f5a5d83b8d5f1178dce9f713adab04eb0d6922f162252adeae15c0557b319373ff1c48c92c7b0fe63303c53591ef4f6d07f2bd9f09295fc98e98ead151a7cae6a28198fd160c865e25a327a581fc5e3e6627c34341db5fefdfc9e8d87dc68e27a13ac37a190964aad5b7b5799ab8a5a2c5588b67ffdf59b39e3c8709f1e0722513b921befb175a6ee18756083a4341f8bbdb3c3e122d4e836b2da00583dc7b9ff1616dc8b9858f0e9499a99e9b2f31a6d3206a059051e8ed4bc58c507defe6a5470e929216cc32fe010c19045d7e5f77e07821c16c85d7b9a2bd16fa3704df9c14396045a3594bb983a6ada5ca4412046a015afbaf813b5530c394ef4bf245dda166a20618901edf150d146eec3520316f656d4cf978088e705e49aa140daa0bc5ef2a094f13fe3e60c492041a451844cd307f93513df0f9d93958ddfb576b8b7b11838fc22cf2c735e419bbe693b60596a4d7c86d0bb382b65a881f5ff45794e866efb455a441a5f9d9500bb807157ebb2129d53a95b0f3671f36bcbb03a7b21d7aefb809a129398bcbb2128c311d6053eadf6d6fb336895b7fabfc2ddd3489f87ca4c4e355693171dd5255ecc7478568ad2cf041c22df9e86f477503437e664ffd6800beeafa6d174a51f8d2b1960cb7209f4ccdf20dfe1aa96c871a707d73e4a0b568407898f7285b1d9be762e6d5c41afa03e49fedacd6104b8b2659911dfa8fd6b53690306dbf0b35280bc10b745129dbc272a85b3eb4901fecc0086b021dffb6c4f7b319ac04935cd23eb29577bfdcf5cf6d837024096d10204341136e4fb77e4164b792b965462612856e3e74ba60c11d069ca9faff1b14382990e5e2901ef71f054de8da97e7bf831d3eb4e2434f092adbcff4a70b4789bb2671e2c7a9f1acbe263086eb4e6b65c82cff496eeae17dc9e2afe0fb0696ed1686ec9df40c71789b64845928a5eda4ff3cb5be3b3000b08c122b1659661b727c72b4b3b981512affb54c76acc38d785c4d146125a682010430820100a003020117a281f80481f52efec7b4ac9c6994f10b97b1ff1de8c779af0c1c85ef1c301e89c854967979851a00e4224e68be4f9f17b5ea3fbd9baacd1ff6827040327c59c4281b055a996f2573f6d0f8ea12189947700dfd690471d23770e8e69a00a13b5c460aa8f788ae0039263e98ce865c13bc14bea90a0ffba68daf3396f9e6cd2689f0e916e2de52f8342be1397b0505ba054731df65827f22d90320f873ac124e783f7bbc55363d5ad97b32cc03d4b5c8e24e4276a13785b5c9b7558c92d4e564fa56dfd8811ebc0877f4eb997079b63ab4d9d6c4e8015fa59d2567371ea997b7ba6efd1c87f9d4df524dfbc60943898fa205e1192e8932c5996674e8"/>
  </proto>
  <proto name="kerberos" showname="Kerberos TGS-REP" size="1320" pos="54">
    <field name="" show="Record Mark: 1316 bytes" size="4" pos="54" value="00000524">
      <field name="kerberos.rm.reserved" showname="0... .... .... .... .... .... .... .... = Reserved: Not set" size="4" pos="54" show="0" value="0" unmaskedvalue="00000524"/>
      <field name="kerberos.rm.length" showname=".000 0000 0000 0000 0000 0101 0010 0100 = Record Length: 1316" size="4" pos="54" show="1316" value="524" unmaskedvalue="00000524"/>
    </field>
    <field name="kerberos.pvno" showname="Pvno: 5" size="1" pos="70" show="5" value="05"/>
    <field name="kerberos.msg.type" showname="MSG Type: TGS-REP (13)" size="1" pos="75" show="13" value="0d"/>
    <field name="kerberos.crealm" showname="Client Realm: LAB.ADSECURITY.ORG" size="18" pos="80" show="LAB.ADSECURITY.ORG" value="4c41422e414453454355524954592e4f5247"/>
    <field name="kerberos.cname" showname="Client Name (Principal): darthsidious" size="25" pos="100" show="" value="">
      <field name="kerberos.name_type" showname="Name-type: Principal (1)" size="1" pos="106" show="1" value="01"/>
      <field name="kerberos.name_string" showname="Name: darthsidious" size="12" pos="113" show="darthsidious" value="6461727468736964696f7573"/>
    </field>
    <field name="kerberos.ticket" showname="Ticket" size="977" pos="133" show="" value="">
      <field name="kerberos.tkt_vno" showname="Tkt-vno: 5" size="1" pos="141" show="5" value="05"/>
      <field name="kerberos.realm" showname="Realm: LAB.ADSECURITY.ORG" size="18" pos="146" show="LAB.ADSECURITY.ORG" value="4c41422e414453454355524954592e4f5247"/>
      <field name="kerberos.sname" showname="Server Name (Principal): krbtgt/LAB.ADSECURITY.ORG" size="39" pos="166" show="" value="">
        <field name="kerberos.name_type" showname="Name-type: Principal (1)" size="1" pos="172" show="1" value="01"/>
        <field name="kerberos.name_string" showname="Name: krbtgt" size="6" pos="179" show="krbtgt" value="6b7262746774"/>
        <field name="kerberos.name_string" showname="Name: LAB.ADSECURITY.ORG" size="18" pos="187" show="LAB.ADSECURITY.ORG" value="4c41422e414453454355524954592e4f5247"/>
      </field>
      <field name="kerberos.ticket.enc_part" showname="enc-part rc4-hmac" size="901" pos="209" show="" value="">
        <field name="kerberos.etype" showname="Encryption type: rc4-hmac (23)" size="1" pos="217" show="23" value="17"/>
        <field name="kerberos.kvno" showname="Kvno: 2" size="1" pos="222" show="2" value="02"/>
        <field name="kerberos.ticket.data" showname="enc-part: 3746935290b5cfd4fddb2734bf49db0628a21885f80a5865..." size="879" pos="231" show="37:46:93:52:90:b5:cf:d4:fd:db:27:34:bf:49:db:06:28:a2:18:85:f8:0a:58:65:11:27:55:2b:90:90:a4:8a:94:85:93:62:f6:9e:25:e3:74:76:b4:4a:51:67:e9:ba:90:83:db:df:c0:41:17:74:84:54:09:b2:48:b8:3a:b6:f7:7b:66:d6:47:68:c3:f8:e8:bb:af:b3:5e:65:5e:e3:34:51:9c:76:fe:81:6a:cf:fe:5c:bb:3d:3b:7d:74:ae:ba:6b:9b:74:79:bf:2b:36:cf:96:e7:9e:4b:32:11:95:08:fd:57:a4:29:7e:6e:4e:85:24:b4:01:c5:03:2b:6d:e3:4f:88:46:50:89:cf:c1:c4:78:5f:4f:58:26:0e:44:42:05:97:53:8a:e0:7f:7e:66:9a:42:d9:84:97:51:f5:a5:d8:3b:8d:5f:11:78:dc:e9:f7:13:ad:ab:04:eb:0d:69:22:f1:62:25:2a:de:ae:15:c0:55:7b:31:93:73:ff:1c:48:c9:2c:7b:0f:e6:33:03:c5:35:91:ef:4f:6d:07:f2:bd:9f:09:29:5f:c9:8e:98:ea:d1:51:a7:ca:e6:a2:81:98:fd:16:0c:86:5e:25:a3:27:a5:81:fc:5e:3e:66:27:c3:43:41:db:5f:ef:df:c9:e8:d8:7d:c6:8e:27:a1:3a:c3:7a:19:09:64:aa:d5:b7:b5:79:9a:b8:a5:a2:c5:58:8b:67:ff:df:59:b3:9e:3c:87:09:f1:e0:72:25:13:b9:21:be:fb:17:5a:6e:e1:87:56:08:3a:43:41:f8:bb:db:3c:3e:12:2d:4e:83:6b:2d:a0:05:83:dc:7b:9f:f1:61:6d:c8:b9:85:8f:0e:94:99:a9:9e:9b:2f:31:a6:d3:20:6a:05:90:51:e8:ed:4b:c5:8c:50:7d:ef:e6:a5:47:0e:92:92:16:cc:32:fe:01:0c:19:04:5d:7e:5f:77:e0:78:21:c1:6c:85:d7:b9:a2:bd:16:fa:37:04:df:9c:14:39:60:45:a3:59:4b:b9:83:a6:ad:a5:ca:44:12:04:6a:01:5a:fb:af:81:3b:55:30:c3:94:ef:4b:f2:45:dd:a1:66:a2:06:18:90:1e:df:15:0d:14:6e:ec:35:20:31:6f:65:6d:4c:f9:78:08:8e:70:5e:49:aa:14:0d:aa:0b:c5:ef:2a:09:4f:13:fe:3e:60:c4:92:04:1a:45:18:44:cd:30:7f:93:51:3d:f0:f9:d9:39:58:dd:fb:57:6b:8b:7b:11:83:8f:c2:2c:f2:c7:35:e4:19:bb:e6:93:b6:05:96:a4:d7:c8:6d:0b:b3:82:b6:5a:88:1f:5f:f4:57:94:e8:66:ef:b4:55:a4:41:a5:f9:d9:50:0b:b8:07:15:7e:bb:21:29:d5:3a:95:b0:f3:67:1f:36:bc:bb:03:a7:b2:1d:7a:ef:b8:09:a1:29:39:8b:cb:b2:12:8c:31:1d:60:53:ea:df:6d:6f:b3:36:89:5b:7f:ab:fc:2d:dd:34:89:f8:7c:a4:c4:e3:55:69:31:71:dd:52:55:ec:c7:47:85:68:ad:2c:f0:41:c2:2d:f9:e8:6f:47:75:03:43:7e:66:4f:fd:68:00:be:ea:fa:6d:17:4a:51:f8:d2:b1:96:0c:b7:20:9f:4c:cd:f2:0d:fe:1a:a9:6c:87:1a:70:7d:73:e4:a0:b5:68:40:78:98:f7:28:5b:1d:9b:e7:62:e6:d5:c4:1a:fa:03:e4:9f:ed:ac:d6:10:4b:8b:26:59:91:1d:fa:8f:d6:b5:36:90:30:6d:bf:0b:35:28:0b:c1:0b:74:51:29:db:c2:72:a8:5b:3e:b4:90:1f:ec:c0:08:6b:02:1d:ff:b6:c4:f7:b3:19:ac:04:93:5c:d2:3e:b2:95:77:bf:dc:f5:cf:6d:83:70:24:09:6d:10:20:43:41:13:6e:4f:b7:7e:41:64:b7:92:b9:65:46:26:12:85:6e:3e:74:ba:60:c1:1d:06:9c:a9:fa:ff:1b:14:38:29:90:e5:e2:90:1e:f7:1f:05:4d:e8:da:97:e7:bf:83:1d:3e:b4:e2:43:4f:09:2a:db:cf:f4:a7:0b:47:89:bb:26:71:e2:c7:a9:f1:ac:be:26:30:86:eb:4e:6b:65:c8:2c:ff:49:6e:ea:e1:7d:c9:e2:af:e0:fb:06:96:ed:16:86:ec:9d:f4:0c:71:78:9b:64:84:59:28:a5:ed:a4:ff:3c:b5:be:3b:30:00:b0:8c:12:2b:16:59:66:1b:72:7c:72:b4:b3:b9:81:51:2a:ff:b5:4c:76:ac:c3:8d:78:5c:4d:14:61:25" value="3746935290b5cfd4fddb2734bf49db0628a21885f80a58651127552b9090a48a94859362f69e25e37476b44a5167e9ba9083dbdfc0411774845409b248b83ab6f77b66d64768c3f8e8bbafb35e655ee334519c76fe816acffe5cbb3d3b7d74aeba6b9b7479bf2b36cf96e79e4b32119508fd57a4297e6e4e8524b401c5032b6de34f88465089cfc1c4785f4f58260e44420597538ae07f7e669a42d9849751f5a5d83b8d5f1178dce9f713adab04eb0d6922f162252adeae15c0557b319373ff1c48c92c7b0fe63303c53591ef4f6d07f2bd9f09295fc98e98ead151a7cae6a28198fd160c865e25a327a581fc5e3e6627c34341db5fefdfc9e8d87dc68e27a13ac37a190964aad5b7b5799ab8a5a2c5588b67ffdf59b39e3c8709f1e0722513b921befb175a6ee18756083a4341f8bbdb3c3e122d4e836b2da00583dc7b9ff1616dc8b9858f0e9499a99e9b2f31a6d3206a059051e8ed4bc58c507defe6a5470e929216cc32fe010c19045d7e5f77e07821c16c85d7b9a2bd16fa3704df9c14396045a3594bb983a6ada5ca4412046a015afbaf813b5530c394ef4bf245dda166a20618901edf150d146eec3520316f656d4cf978088e705e49aa140daa0bc5ef2a094f13fe3e60c492041a451844cd307f93513df0f9d93958ddfb576b8b7b11838fc22cf2c735e419bbe693b60596a4d7c86d0bb382b65a881f5ff45794e866efb455a441a5f9d9500bb807157ebb2129d53a95b0f3671f36bcbb03a7b21d7aefb809a129398bcbb2128c311d6053eadf6d6fb336895b7fabfc2ddd3489f87ca4c4e355693171dd5255ecc7478568ad2cf041c22df9e86f477503437e664ffd6800beeafa6d174a51f8d2b1960cb7209f4ccdf20dfe1aa96c871a707d73e4a0b568407898f7285b1d9be762e6d5c41afa03e49fedacd6104b8b2659911dfa8fd6b53690306dbf0b35280bc10b745129dbc272a85b3eb4901fecc0086b021dffb6c4f7b319ac04935cd23eb29577bfdcf5cf6d837024096d10204341136e4fb77e4164b792b965462612856e3e74ba60c11d069ca9faff1b14382990e5e2901ef71f054de8da97e7bf831d3eb4e2434f092adbcff4a70b4789bb2671e2c7a9f1acbe263086eb4e6b65c82cff496eeae17dc9e2afe0fb0696ed1686ec9df40c71789b64845928a5eda4ff3cb5be3b3000b08c122b1659661b727c72b4b3b981512affb54c76acc38d785c4d146125"/>
      </field>
    </field>
    <field name="kerberos.kdcrep.enc_part" showname="enc-part rc4-hmac" size="260" pos="1114" show="" value="">
      <field name="kerberos.etype" showname="Encryption type: rc4-hmac (23)" size="1" pos="1122" show="23" value="17"/>
      <field name="kerberos.kdcrep.data" showname="enc-part: 2efec7b4ac9c6994f10b97b1ff1de8c779af0c1c85ef1c30..." size="245" pos="1129" show="2e:fe:c7:b4:ac:9c:69:94:f1:0b:97:b1:ff:1d:e8:c7:79:af:0c:1c:85:ef:1c:30:1e:89:c8:54:96:79:79:85:1a:00:e4:22:4e:68:be:4f:9f:17:b5:ea:3f:bd:9b:aa:cd:1f:f6:82:70:40:32:7c:59:c4:28:1b:05:5a:99:6f:25:73:f6:d0:f8:ea:12:18:99:47:70:0d:fd:69:04:71:d2:37:70:e8:e6:9a:00:a1:3b:5c:46:0a:a8:f7:88:ae:00:39:26:3e:98:ce:86:5c:13:bc:14:be:a9:0a:0f:fb:a6:8d:af:33:96:f9:e6:cd:26:89:f0:e9:16:e2:de:52:f8:34:2b:e1:39:7b:05:05:ba:05:47:31:df:65:82:7f:22:d9:03:20:f8:73:ac:12:4e:78:3f:7b:bc:55:36:3d:5a:d9:7b:32:cc:03:d4:b5:c8:e2:4e:42:76:a1:37:85:b5:c9:b7:55:8c:92:d4:e5:64:fa:56:df:d8:81:1e:bc:08:77:f4:eb:99:70:79:b6:3a:b4:d9:d6:c4:e8:01:5f:a5:9d:25:67:37:1e:a9:97:b7:ba:6e:fd:1c:87:f9:d4:df:52:4d:fb:c6:09:43:89:8f:a2:05:e1:19:2e:89:32:c5:99:66:74:e8" value="2efec7b4ac9c6994f10b97b1ff1de8c779af0c1c85ef1c301e89c854967979851a00e4224e68be4f9f17b5ea3fbd9baacd1ff6827040327c59c4281b055a996f2573f6d0f8ea12189947700dfd690471d23770e8e69a00a13b5c460aa8f788ae0039263e98ce865c13bc14bea90a0ffba68daf3396f9e6cd2689f0e916e2de52f8342be1397b0505ba054731df65827f22d90320f873ac124e783f7bbc55363d5ad97b32cc03d4b5c8e24e4276a13785b5c9b7558c92d4e564fa56dfd8811ebc0877f4eb997079b63ab4d9d6c4e8015fa59d2567371ea997b7ba6efd1c87f9d4df524dfbc60943898fa205e1192e8932c5996674e8"/>
    </field>
  </proto>
</packet>


</pdml>
