<?xml version="1.0"?>
<?xml-stylesheet type="text/xsl" href="pdml2html.xsl"?>
<!-- You can find pdml2html.xsl in /usr/share/wireshark or at http://anonsvn.wireshark.org/trunk/wireshark/pdml2html.xsl. -->
<pdml version="0" creator="wireshark/1.10.6" time="Sun Jun  7 11:45:34 2015" capture_file="MiTM-etype-17-user1-openwall.pcap">
<packet>
  <proto name="geninfo" pos="0" showname="General information" size="130">
    <field name="num" pos="0" show="1" showname="Number" value="1" size="130"/>
    <field name="len" pos="0" show="130" showname="Frame Length" value="82" size="130"/>
    <field name="caplen" pos="0" show="130" showname="Captured Length" value="82" size="130"/>
    <field name="timestamp" pos="0" show="Nov 21, 2012 22:07:49.491229000 CET" showname="Captured Time" value="1353532069.491229000" size="130"/>
  </proto>
  <proto name="frame" showname="Frame 1: 130 bytes on wire (1040 bits), 130 bytes captured (1040 bits)" size="130" pos="0">
    <field name="frame.encap_type" showname="Encapsulation type: Ethernet (1)" size="0" pos="0" show="1"/>
    <field name="frame.time" showname="Arrival Time: Nov 21, 2012 22:07:49.491229000 CET" size="0" pos="0" show="Nov 21, 2012 22:07:49.491229000"/>
    <field name="frame.offset_shift" showname="Time shift for this packet: 0.000000000 seconds" size="0" pos="0" show="0.000000000"/>
    <field name="frame.time_epoch" showname="Epoch Time: 1353532069.491229000 seconds" size="0" pos="0" show="1353532069.491229000"/>
    <field name="frame.time_delta" showname="Time delta from previous captured frame: 0.000000000 seconds" size="0" pos="0" show="0.000000000"/>
    <field name="frame.time_delta_displayed" showname="Time delta from previous displayed frame: 0.000000000 seconds" size="0" pos="0" show="0.000000000"/>
    <field name="frame.time_relative" showname="Time since reference or first frame: 0.000000000 seconds" size="0" pos="0" show="0.000000000"/>
    <field name="frame.number" showname="Frame Number: 1" size="0" pos="0" show="1"/>
    <field name="frame.len" showname="Frame Length: 130 bytes (1040 bits)" size="0" pos="0" show="130"/>
    <field name="frame.cap_len" showname="Capture Length: 130 bytes (1040 bits)" size="0" pos="0" show="130"/>
    <field name="frame.marked" showname="Frame is marked: False" size="0" pos="0" show="0"/>
    <field name="frame.ignored" showname="Frame is ignored: False" size="0" pos="0" show="0"/>
    <field name="frame.protocols" showname="Protocols in frame: eth:ip:udp:rpc" size="0" pos="0" show="eth:ip:udp:rpc"/>
  </proto>
  <proto name="eth" showname="Ethernet II, Src: Giga-Byt_7e:5d:d5 (00:24:1d:7e:5d:d5), Dst: CadmusCo_4d:1e:78 (08:00:27:4d:1e:78)" size="14" pos="0">
    <field name="eth.dst" showname="Destination: CadmusCo_4d:1e:78 (08:00:27:4d:1e:78)" size="6" pos="0" show="08:00:27:4d:1e:78" value="0800274d1e78">
      <field name="eth.addr" showname="Address: CadmusCo_4d:1e:78 (08:00:27:4d:1e:78)" size="6" pos="0" show="08:00:27:4d:1e:78" value="0800274d1e78"/>
      <field name="eth.lg" showname=".... ..0. .... .... .... .... = LG bit: Globally unique address (factory default)" size="3" pos="0" show="0" value="0" unmaskedvalue="080027"/>
      <field name="eth.ig" showname=".... ...0 .... .... .... .... = IG bit: Individual address (unicast)" size="3" pos="0" show="0" value="0" unmaskedvalue="080027"/>
    </field>
    <field name="eth.src" showname="Source: Giga-Byt_7e:5d:d5 (00:24:1d:7e:5d:d5)" size="6" pos="6" show="00:24:1d:7e:5d:d5" value="00241d7e5dd5">
      <field name="eth.addr" showname="Address: Giga-Byt_7e:5d:d5 (00:24:1d:7e:5d:d5)" size="6" pos="6" show="00:24:1d:7e:5d:d5" value="00241d7e5dd5"/>
      <field name="eth.lg" showname=".... ..0. .... .... .... .... = LG bit: Globally unique address (factory default)" size="3" pos="6" show="0" value="0" unmaskedvalue="00241d"/>
      <field name="eth.ig" showname=".... ...0 .... .... .... .... = IG bit: Individual address (unicast)" size="3" pos="6" show="0" value="0" unmaskedvalue="00241d"/>
    </field>
    <field name="eth.type" showname="Type: IP (0x0800)" size="2" pos="12" show="0x0800" value="0800"/>
  </proto>
  <proto name="ip" showname="Internet Protocol Version 4, Src: 192.168.2.252 (192.168.2.252), Dst: 192.168.2.17 (192.168.2.17)" size="20" pos="14">
    <field name="ip.version" showname="Version: 4" size="1" pos="14" show="4" value="45"/>
    <field name="ip.hdr_len" showname="Header length: 20 bytes" size="1" pos="14" show="20" value="45"/>
    <field name="ip.dsfield" showname="Differentiated Services Field: 0x00 (DSCP 0x00: Default; ECN: 0x00: Not-ECT (Not ECN-Capable Transport))" size="1" pos="15" show="0" value="00">
      <field name="ip.dsfield.dscp" showname="0000 00.. = Differentiated Services Codepoint: Default (0x00)" size="1" pos="15" show="0x00" value="0" unmaskedvalue="00"/>
      <field name="ip.dsfield.ecn" showname=".... ..00 = Explicit Congestion Notification: Not-ECT (Not ECN-Capable Transport) (0x00)" size="1" pos="15" show="0x00" value="0" unmaskedvalue="00"/>
    </field>
    <field name="ip.len" showname="Total Length: 116" size="2" pos="16" show="116" value="0074"/>
    <field name="ip.id" showname="Identification: 0x0000 (0)" size="2" pos="18" show="0x0000" value="0000"/>
    <field name="ip.flags" showname="Flags: 0x02 (Don&apos;t Fragment)" size="1" pos="20" show="0x02" value="40">
      <field name="ip.flags.rb" showname="0... .... = Reserved bit: Not set" size="1" pos="20" show="0" value="40"/>
      <field name="ip.flags.df" showname=".1.. .... = Don&apos;t fragment: Set" size="1" pos="20" show="1" value="40"/>
      <field name="ip.flags.mf" showname="..0. .... = More fragments: Not set" size="1" pos="20" show="0" value="40"/>
    </field>
    <field name="ip.frag_offset" showname="Fragment offset: 0" size="2" pos="20" show="0" value="4000"/>
    <field name="ip.ttl" showname="Time to live: 64" size="1" pos="22" show="64" value="40"/>
    <field name="ip.proto" showname="Protocol: UDP (17)" size="1" pos="23" show="17" value="11"/>
    <field name="ip.checksum" showname="Header checksum: 0xb41b [validation disabled]" size="2" pos="24" show="0xb41b" value="b41b">
      <field name="ip.checksum_good" showname="Good: False" size="2" pos="24" show="0" value="b41b"/>
      <field name="ip.checksum_bad" showname="Bad: False" size="2" pos="24" show="0" value="b41b"/>
    </field>
    <field name="ip.src" showname="Source: 192.168.2.252 (192.168.2.252)" size="4" pos="26" show="192.168.2.252" value="c0a802fc"/>
    <field name="ip.addr" showname="Source or Destination Address: 192.168.2.252 (192.168.2.252)" hide="yes" size="4" pos="26" show="192.168.2.252" value="c0a802fc"/>
    <field name="ip.src_host" showname="Source Host: 192.168.2.252" hide="yes" size="4" pos="26" show="192.168.2.252" value="c0a802fc"/>
    <field name="ip.host" showname="Source or Destination Host: 192.168.2.252" hide="yes" size="4" pos="26" show="192.168.2.252" value="c0a802fc"/>
    <field name="ip.dst" showname="Destination: 192.168.2.17 (192.168.2.17)" size="4" pos="30" show="192.168.2.17" value="c0a80211"/>
    <field name="ip.addr" showname="Source or Destination Address: 192.168.2.17 (192.168.2.17)" hide="yes" size="4" pos="30" show="192.168.2.17" value="c0a80211"/>
    <field name="ip.dst_host" showname="Destination Host: 192.168.2.17" hide="yes" size="4" pos="30" show="192.168.2.17" value="c0a80211"/>
    <field name="ip.host" showname="Source or Destination Host: 192.168.2.17" hide="yes" size="4" pos="30" show="192.168.2.17" value="c0a80211"/>
    <field name="" show="Source GeoIP: Unknown" size="4" pos="26" value="c0a802fc"/>
    <field name="" show="Destination GeoIP: Unknown" size="4" pos="30" value="c0a80211"/>
  </proto>
  <proto name="udp" showname="User Datagram Protocol, Src Port: owamp-control (861), Dst Port: omirr (808)" size="8" pos="34">
    <field name="udp.srcport" showname="Source port: owamp-control (861)" size="2" pos="34" show="861" value="035d"/>
    <field name="udp.dstport" showname="Destination port: omirr (808)" size="2" pos="36" show="808" value="0328"/>
    <field name="udp.port" showname="Source or Destination Port: 861" hide="yes" size="2" pos="34" show="861" value="035d"/>
    <field name="udp.port" showname="Source or Destination Port: 808" hide="yes" size="2" pos="36" show="808" value="0328"/>
    <field name="udp.length" showname="Length: 96" size="2" pos="38" show="96" value="0060"/>
    <field name="udp.checksum_coverage" showname="Checksum coverage: 96" hide="yes" size="0" pos="38" show="96"/>
    <field name="udp.checksum" showname="Checksum: 0x32e4 [validation disabled]" size="2" pos="40" show="0x32e4" value="32e4">
      <field name="udp.checksum_good" showname="Good Checksum: False" size="2" pos="40" show="0" value="32e4"/>
      <field name="udp.checksum_bad" showname="Bad Checksum: False" size="2" pos="40" show="0" value="32e4"/>
    </field>
  </proto>
  <proto name="rpc" showname="Remote Procedure Call, Type:Call XID:0x419ff530" size="40" pos="42">
    <field name="rpc.xid" showname="XID: 0x419ff530 (1101002032)" size="4" pos="42" show="0x419ff530" value="419ff530"/>
    <field name="rpc.msgtyp" showname="Message Type: Call (0)" size="4" pos="46" show="0" value="00000000"/>
    <field name="rpc.version" showname="RPC Version: 2" size="4" pos="50" show="2" value="00000002"/>
    <field name="rpc.program" showname="Program: YPSERV (100004)" size="4" pos="54" show="100004" value="000186a4"/>
    <field name="rpc.programversion" showname="Program Version: 2" size="4" pos="58" show="2" value="00000002"/>
    <field name="rpc.procedure" showname="Procedure: MATCH (3)" size="4" pos="62" show="3" value="00000003"/>
    <field name="rpc.reqframe" showname="The reply to this request is in frame 2" size="0" pos="42" show="2"/>
    <field name="" show="Credentials" size="8" pos="66" value="0000000000000000">
      <field name="rpc.auth.flavor" showname="Flavor: AUTH_NULL (0)" size="4" pos="66" show="0" value="00000000"/>
      <field name="rpc.auth.length" showname="Length: 0" size="4" pos="70" show="0" value="00000000"/>
    </field>
    <field name="" show="Verifier" size="8" pos="74" value="0000000000000000">
      <field name="rpc.auth.flavor" showname="Flavor: AUTH_NULL (0)" size="4" pos="74" show="0" value="00000000"/>
      <field name="rpc.auth.length" showname="Length: 0" size="4" pos="78" show="0" value="00000000"/>
    </field>
  </proto>
  <proto name="ypserv" showname="Yellow Pages Service MATCH call EXAMPLE.COM/passwd.byname/user1" size="48" pos="82">
    <field name="rpc.programversion" showname="Program Version: 2" size="0" pos="124" show="2"/>
    <field name="ypserv.procedure_v2" showname="V2 Procedure: MATCH (3)" size="0" pos="124" show="3"/>
    <field name="" show="Domain: EXAMPLE.COM" size="16" pos="82" value="0000000b4558414d504c452e434f4d00">
      <field name="" show="length: 11" size="4" pos="82" value="0000000b"/>
      <field name="ypserv.domain" showname="contents: EXAMPLE.COM" size="11" pos="86" show="EXAMPLE.COM" value="4558414d504c452e434f4d"/>
      <field name="" show="fill bytes: opaque data" size="1" pos="97" value="00"/>
    </field>
    <field name="" show="Map Name: passwd.byname" size="20" pos="98" value="0000000d7061737377642e62796e616d65000000">
      <field name="" show="length: 13" size="4" pos="98" value="0000000d"/>
      <field name="ypserv.map" showname="contents: passwd.byname" size="13" pos="102" show="passwd.byname" value="7061737377642e62796e616d65"/>
      <field name="" show="fill bytes: opaque data" size="3" pos="115" value="000000"/>
    </field>
    <field name="" show="Key: user1" size="12" pos="118" value="000000057573657231000000">
      <field name="" show="length: 5" size="4" pos="118" value="00000005"/>
      <field name="ypserv.key" showname="contents: user1" size="5" pos="122" show="user1" value="7573657231"/>
      <field name="" show="fill bytes: opaque data" size="3" pos="127" value="000000"/>
    </field>
  </proto>
</packet>


<packet>
  <proto name="geninfo" pos="0" showname="General information" size="114">
    <field name="num" pos="0" show="2" showname="Number" value="2" size="114"/>
    <field name="len" pos="0" show="114" showname="Frame Length" value="72" size="114"/>
    <field name="caplen" pos="0" show="114" showname="Captured Length" value="72" size="114"/>
    <field name="timestamp" pos="0" show="Nov 21, 2012 22:07:49.491721000 CET" showname="Captured Time" value="1353532069.491721000" size="114"/>
  </proto>
  <proto name="frame" showname="Frame 2: 114 bytes on wire (912 bits), 114 bytes captured (912 bits)" size="114" pos="0">
    <field name="frame.encap_type" showname="Encapsulation type: Ethernet (1)" size="0" pos="0" show="1"/>
    <field name="frame.time" showname="Arrival Time: Nov 21, 2012 22:07:49.491721000 CET" size="0" pos="0" show="Nov 21, 2012 22:07:49.491721000"/>
    <field name="frame.offset_shift" showname="Time shift for this packet: 0.000000000 seconds" size="0" pos="0" show="0.000000000"/>
    <field name="frame.time_epoch" showname="Epoch Time: 1353532069.491721000 seconds" size="0" pos="0" show="1353532069.491721000"/>
    <field name="frame.time_delta" showname="Time delta from previous captured frame: 0.000492000 seconds" size="0" pos="0" show="0.000492000"/>
    <field name="frame.time_delta_displayed" showname="Time delta from previous displayed frame: 0.000492000 seconds" size="0" pos="0" show="0.000492000"/>
    <field name="frame.time_relative" showname="Time since reference or first frame: 0.000492000 seconds" size="0" pos="0" show="0.000492000"/>
    <field name="frame.number" showname="Frame Number: 2" size="0" pos="0" show="2"/>
    <field name="frame.len" showname="Frame Length: 114 bytes (912 bits)" size="0" pos="0" show="114"/>
    <field name="frame.cap_len" showname="Capture Length: 114 bytes (912 bits)" size="0" pos="0" show="114"/>
    <field name="frame.marked" showname="Frame is marked: False" size="0" pos="0" show="0"/>
    <field name="frame.ignored" showname="Frame is ignored: False" size="0" pos="0" show="0"/>
    <field name="frame.protocols" showname="Protocols in frame: eth:ip:udp:rpc" size="0" pos="0" show="eth:ip:udp:rpc"/>
  </proto>
  <proto name="eth" showname="Ethernet II, Src: CadmusCo_4d:1e:78 (08:00:27:4d:1e:78), Dst: Giga-Byt_7e:5d:d5 (00:24:1d:7e:5d:d5)" size="14" pos="0">
    <field name="eth.dst" showname="Destination: Giga-Byt_7e:5d:d5 (00:24:1d:7e:5d:d5)" size="6" pos="0" show="00:24:1d:7e:5d:d5" value="00241d7e5dd5">
      <field name="eth.addr" showname="Address: Giga-Byt_7e:5d:d5 (00:24:1d:7e:5d:d5)" size="6" pos="0" show="00:24:1d:7e:5d:d5" value="00241d7e5dd5"/>
      <field name="eth.lg" showname=".... ..0. .... .... .... .... = LG bit: Globally unique address (factory default)" size="3" pos="0" show="0" value="0" unmaskedvalue="00241d"/>
      <field name="eth.ig" showname=".... ...0 .... .... .... .... = IG bit: Individual address (unicast)" size="3" pos="0" show="0" value="0" unmaskedvalue="00241d"/>
    </field>
    <field name="eth.src" showname="Source: CadmusCo_4d:1e:78 (08:00:27:4d:1e:78)" size="6" pos="6" show="08:00:27:4d:1e:78" value="0800274d1e78">
      <field name="eth.addr" showname="Address: CadmusCo_4d:1e:78 (08:00:27:4d:1e:78)" size="6" pos="6" show="08:00:27:4d:1e:78" value="0800274d1e78"/>
      <field name="eth.lg" showname=".... ..0. .... .... .... .... = LG bit: Globally unique address (factory default)" size="3" pos="6" show="0" value="0" unmaskedvalue="080027"/>
      <field name="eth.ig" showname=".... ...0 .... .... .... .... = IG bit: Individual address (unicast)" size="3" pos="6" show="0" value="0" unmaskedvalue="080027"/>
    </field>
    <field name="eth.type" showname="Type: IP (0x0800)" size="2" pos="12" show="0x0800" value="0800"/>
  </proto>
  <proto name="ip" showname="Internet Protocol Version 4, Src: 192.168.2.17 (192.168.2.17), Dst: 192.168.2.252 (192.168.2.252)" size="20" pos="14">
    <field name="ip.version" showname="Version: 4" size="1" pos="14" show="4" value="45"/>
    <field name="ip.hdr_len" showname="Header length: 20 bytes" size="1" pos="14" show="20" value="45"/>
    <field name="ip.dsfield" showname="Differentiated Services Field: 0x00 (DSCP 0x00: Default; ECN: 0x00: Not-ECT (Not ECN-Capable Transport))" size="1" pos="15" show="0" value="00">
      <field name="ip.dsfield.dscp" showname="0000 00.. = Differentiated Services Codepoint: Default (0x00)" size="1" pos="15" show="0x00" value="0" unmaskedvalue="00"/>
      <field name="ip.dsfield.ecn" showname=".... ..00 = Explicit Congestion Notification: Not-ECT (Not ECN-Capable Transport) (0x00)" size="1" pos="15" show="0x00" value="0" unmaskedvalue="00"/>
    </field>
    <field name="ip.len" showname="Total Length: 100" size="2" pos="16" show="100" value="0064"/>
    <field name="ip.id" showname="Identification: 0x0000 (0)" size="2" pos="18" show="0x0000" value="0000"/>
    <field name="ip.flags" showname="Flags: 0x02 (Don&apos;t Fragment)" size="1" pos="20" show="0x02" value="40">
      <field name="ip.flags.rb" showname="0... .... = Reserved bit: Not set" size="1" pos="20" show="0" value="40"/>
      <field name="ip.flags.df" showname=".1.. .... = Don&apos;t fragment: Set" size="1" pos="20" show="1" value="40"/>
      <field name="ip.flags.mf" showname="..0. .... = More fragments: Not set" size="1" pos="20" show="0" value="40"/>
    </field>
    <field name="ip.frag_offset" showname="Fragment offset: 0" size="2" pos="20" show="0" value="4000"/>
    <field name="ip.ttl" showname="Time to live: 64" size="1" pos="22" show="64" value="40"/>
    <field name="ip.proto" showname="Protocol: UDP (17)" size="1" pos="23" show="17" value="11"/>
    <field name="ip.checksum" showname="Header checksum: 0xb42b [validation disabled]" size="2" pos="24" show="0xb42b" value="b42b">
      <field name="ip.checksum_good" showname="Good: False" size="2" pos="24" show="0" value="b42b"/>
      <field name="ip.checksum_bad" showname="Bad: False" size="2" pos="24" show="0" value="b42b"/>
    </field>
    <field name="ip.src" showname="Source: 192.168.2.17 (192.168.2.17)" size="4" pos="26" show="192.168.2.17" value="c0a80211"/>
    <field name="ip.addr" showname="Source or Destination Address: 192.168.2.17 (192.168.2.17)" hide="yes" size="4" pos="26" show="192.168.2.17" value="c0a80211"/>
    <field name="ip.src_host" showname="Source Host: 192.168.2.17" hide="yes" size="4" pos="26" show="192.168.2.17" value="c0a80211"/>
    <field name="ip.host" showname="Source or Destination Host: 192.168.2.17" hide="yes" size="4" pos="26" show="192.168.2.17" value="c0a80211"/>
    <field name="ip.dst" showname="Destination: 192.168.2.252 (192.168.2.252)" size="4" pos="30" show="192.168.2.252" value="c0a802fc"/>
    <field name="ip.addr" showname="Source or Destination Address: 192.168.2.252 (192.168.2.252)" hide="yes" size="4" pos="30" show="192.168.2.252" value="c0a802fc"/>
    <field name="ip.dst_host" showname="Destination Host: 192.168.2.252" hide="yes" size="4" pos="30" show="192.168.2.252" value="c0a802fc"/>
    <field name="ip.host" showname="Source or Destination Host: 192.168.2.252" hide="yes" size="4" pos="30" show="192.168.2.252" value="c0a802fc"/>
    <field name="" show="Source GeoIP: Unknown" size="4" pos="26" value="c0a80211"/>
    <field name="" show="Destination GeoIP: Unknown" size="4" pos="30" value="c0a802fc"/>
  </proto>
  <proto name="udp" showname="User Datagram Protocol, Src Port: omirr (808), Dst Port: owamp-control (861)" size="8" pos="34">
    <field name="udp.srcport" showname="Source port: omirr (808)" size="2" pos="34" show="808" value="0328"/>
    <field name="udp.dstport" showname="Destination port: owamp-control (861)" size="2" pos="36" show="861" value="035d"/>
    <field name="udp.port" showname="Source or Destination Port: 808" hide="yes" size="2" pos="34" show="808" value="0328"/>
    <field name="udp.port" showname="Source or Destination Port: 861" hide="yes" size="2" pos="36" show="861" value="035d"/>
    <field name="udp.length" showname="Length: 80" size="2" pos="38" show="80" value="0050"/>
    <field name="udp.checksum_coverage" showname="Checksum coverage: 80" hide="yes" size="0" pos="38" show="80"/>
    <field name="udp.checksum" showname="Checksum: 0x86bf [validation disabled]" size="2" pos="40" show="0x86bf" value="86bf">
      <field name="udp.checksum_good" showname="Good Checksum: False" size="2" pos="40" show="0" value="86bf"/>
      <field name="udp.checksum_bad" showname="Bad Checksum: False" size="2" pos="40" show="0" value="86bf"/>
    </field>
  </proto>
  <proto name="rpc" showname="Remote Procedure Call, Type:Reply XID:0x419ff530" size="24" pos="42">
    <field name="rpc.xid" showname="XID: 0x419ff530 (1101002032)" size="4" pos="42" show="0x419ff530" value="419ff530"/>
    <field name="rpc.msgtyp" showname="Message Type: Reply (1)" size="4" pos="46" show="1" value="00000001"/>
    <field name="rpc.program" showname="Program: YPSERV (100004)" size="0" pos="42" show="100004"/>
    <field name="rpc.programversion" showname="Program Version: 2" size="0" pos="42" show="2"/>
    <field name="rpc.procedure" showname="Procedure: MATCH (3)" size="0" pos="42" show="3"/>
    <field name="rpc.replystat" showname="Reply State: accepted (0)" size="4" pos="50" show="0" value="00000000"/>
    <field name="rpc.repframe" showname="This is a reply to a request in frame 1" size="0" pos="42" show="1"/>
    <field name="rpc.time" showname="Time from request: 0.000492000 seconds" size="0" pos="54" show="0.000492000"/>
    <field name="" show="Verifier" size="8" pos="54" value="0000000000000000">
      <field name="rpc.auth.flavor" showname="Flavor: AUTH_NULL (0)" size="4" pos="54" show="0" value="00000000"/>
      <field name="rpc.auth.length" showname="Length: 0" size="4" pos="58" show="0" value="00000000"/>
    </field>
    <field name="rpc.state_accept" showname="Accept State: RPC executed successfully (0)" size="4" pos="62" show="0" value="00000000"/>
  </proto>
  <proto name="ypserv" showname="Yellow Pages Service MATCH reply user1:!!:501:501::/home/user1:/bin/bash" size="48" pos="66">
    <field name="rpc.programversion" showname="Program Version: 2" size="0" pos="108" show="2"/>
    <field name="ypserv.procedure_v2" showname="V2 Procedure: MATCH (3)" size="0" pos="108" show="3"/>
    <field name="ypserv.status" showname="Status: YP_TRUE (1)" size="4" pos="66" show="1" value="00000001"/>
    <field name="" show="Value: user1:!!:501:501::/home/user1:/bin/bash" size="44" pos="70" value="0000002775736572313a21213a3530313a3530313a3a2f686f6d652f75736572313a2f62696e2f6261736800">
      <field name="" show="length: 39" size="4" pos="70" value="00000027"/>
      <field name="ypserv.value" showname="contents: user1:!!:501:501::/home/user1:/bin/bash" size="39" pos="74" show="user1:!!:501:501::/home/user1:/bin/bash" value="75736572313a21213a3530313a3530313a3a2f686f6d652f75736572313a2f62696e2f62617368"/>
      <field name="" show="fill bytes: opaque data" size="1" pos="113" value="00"/>
    </field>
  </proto>
</packet>


<packet>
  <proto name="geninfo" pos="0" showname="General information" size="130">
    <field name="num" pos="0" show="3" showname="Number" value="3" size="130"/>
    <field name="len" pos="0" show="130" showname="Frame Length" value="82" size="130"/>
    <field name="caplen" pos="0" show="130" showname="Captured Length" value="82" size="130"/>
    <field name="timestamp" pos="0" show="Nov 21, 2012 22:07:51.318693000 CET" showname="Captured Time" value="1353532071.318693000" size="130"/>
  </proto>
  <proto name="frame" showname="Frame 3: 130 bytes on wire (1040 bits), 130 bytes captured (1040 bits)" size="130" pos="0">
    <field name="frame.encap_type" showname="Encapsulation type: Ethernet (1)" size="0" pos="0" show="1"/>
    <field name="frame.time" showname="Arrival Time: Nov 21, 2012 22:07:51.318693000 CET" size="0" pos="0" show="Nov 21, 2012 22:07:51.318693000"/>
    <field name="frame.offset_shift" showname="Time shift for this packet: 0.000000000 seconds" size="0" pos="0" show="0.000000000"/>
    <field name="frame.time_epoch" showname="Epoch Time: 1353532071.318693000 seconds" size="0" pos="0" show="1353532071.318693000"/>
    <field name="frame.time_delta" showname="Time delta from previous captured frame: 1.826972000 seconds" size="0" pos="0" show="1.826972000"/>
    <field name="frame.time_delta_displayed" showname="Time delta from previous displayed frame: 1.826972000 seconds" size="0" pos="0" show="1.826972000"/>
    <field name="frame.time_relative" showname="Time since reference or first frame: 1.827464000 seconds" size="0" pos="0" show="1.827464000"/>
    <field name="frame.number" showname="Frame Number: 3" size="0" pos="0" show="3"/>
    <field name="frame.len" showname="Frame Length: 130 bytes (1040 bits)" size="0" pos="0" show="130"/>
    <field name="frame.cap_len" showname="Capture Length: 130 bytes (1040 bits)" size="0" pos="0" show="130"/>
    <field name="frame.marked" showname="Frame is marked: False" size="0" pos="0" show="0"/>
    <field name="frame.ignored" showname="Frame is ignored: False" size="0" pos="0" show="0"/>
    <field name="frame.protocols" showname="Protocols in frame: eth:ip:udp:rpc" size="0" pos="0" show="eth:ip:udp:rpc"/>
  </proto>
  <proto name="eth" showname="Ethernet II, Src: Giga-Byt_7e:5d:d5 (00:24:1d:7e:5d:d5), Dst: CadmusCo_4d:1e:78 (08:00:27:4d:1e:78)" size="14" pos="0">
    <field name="eth.dst" showname="Destination: CadmusCo_4d:1e:78 (08:00:27:4d:1e:78)" size="6" pos="0" show="08:00:27:4d:1e:78" value="0800274d1e78">
      <field name="eth.addr" showname="Address: CadmusCo_4d:1e:78 (08:00:27:4d:1e:78)" size="6" pos="0" show="08:00:27:4d:1e:78" value="0800274d1e78"/>
      <field name="eth.lg" showname=".... ..0. .... .... .... .... = LG bit: Globally unique address (factory default)" size="3" pos="0" show="0" value="0" unmaskedvalue="080027"/>
      <field name="eth.ig" showname=".... ...0 .... .... .... .... = IG bit: Individual address (unicast)" size="3" pos="0" show="0" value="0" unmaskedvalue="080027"/>
    </field>
    <field name="eth.src" showname="Source: Giga-Byt_7e:5d:d5 (00:24:1d:7e:5d:d5)" size="6" pos="6" show="00:24:1d:7e:5d:d5" value="00241d7e5dd5">
      <field name="eth.addr" showname="Address: Giga-Byt_7e:5d:d5 (00:24:1d:7e:5d:d5)" size="6" pos="6" show="00:24:1d:7e:5d:d5" value="00241d7e5dd5"/>
      <field name="eth.lg" showname=".... ..0. .... .... .... .... = LG bit: Globally unique address (factory default)" size="3" pos="6" show="0" value="0" unmaskedvalue="00241d"/>
      <field name="eth.ig" showname=".... ...0 .... .... .... .... = IG bit: Individual address (unicast)" size="3" pos="6" show="0" value="0" unmaskedvalue="00241d"/>
    </field>
    <field name="eth.type" showname="Type: IP (0x0800)" size="2" pos="12" show="0x0800" value="0800"/>
  </proto>
  <proto name="ip" showname="Internet Protocol Version 4, Src: 192.168.2.252 (192.168.2.252), Dst: 192.168.2.17 (192.168.2.17)" size="20" pos="14">
    <field name="ip.version" showname="Version: 4" size="1" pos="14" show="4" value="45"/>
    <field name="ip.hdr_len" showname="Header length: 20 bytes" size="1" pos="14" show="20" value="45"/>
    <field name="ip.dsfield" showname="Differentiated Services Field: 0x00 (DSCP 0x00: Default; ECN: 0x00: Not-ECT (Not ECN-Capable Transport))" size="1" pos="15" show="0" value="00">
      <field name="ip.dsfield.dscp" showname="0000 00.. = Differentiated Services Codepoint: Default (0x00)" size="1" pos="15" show="0x00" value="0" unmaskedvalue="00"/>
      <field name="ip.dsfield.ecn" showname=".... ..00 = Explicit Congestion Notification: Not-ECT (Not ECN-Capable Transport) (0x00)" size="1" pos="15" show="0x00" value="0" unmaskedvalue="00"/>
    </field>
    <field name="ip.len" showname="Total Length: 116" size="2" pos="16" show="116" value="0074"/>
    <field name="ip.id" showname="Identification: 0x0000 (0)" size="2" pos="18" show="0x0000" value="0000"/>
    <field name="ip.flags" showname="Flags: 0x02 (Don&apos;t Fragment)" size="1" pos="20" show="0x02" value="40">
      <field name="ip.flags.rb" showname="0... .... = Reserved bit: Not set" size="1" pos="20" show="0" value="40"/>
      <field name="ip.flags.df" showname=".1.. .... = Don&apos;t fragment: Set" size="1" pos="20" show="1" value="40"/>
      <field name="ip.flags.mf" showname="..0. .... = More fragments: Not set" size="1" pos="20" show="0" value="40"/>
    </field>
    <field name="ip.frag_offset" showname="Fragment offset: 0" size="2" pos="20" show="0" value="4000"/>
    <field name="ip.ttl" showname="Time to live: 64" size="1" pos="22" show="64" value="40"/>
    <field name="ip.proto" showname="Protocol: UDP (17)" size="1" pos="23" show="17" value="11"/>
    <field name="ip.checksum" showname="Header checksum: 0xb41b [validation disabled]" size="2" pos="24" show="0xb41b" value="b41b">
      <field name="ip.checksum_good" showname="Good: False" size="2" pos="24" show="0" value="b41b"/>
      <field name="ip.checksum_bad" showname="Bad: False" size="2" pos="24" show="0" value="b41b"/>
    </field>
    <field name="ip.src" showname="Source: 192.168.2.252 (192.168.2.252)" size="4" pos="26" show="192.168.2.252" value="c0a802fc"/>
    <field name="ip.addr" showname="Source or Destination Address: 192.168.2.252 (192.168.2.252)" hide="yes" size="4" pos="26" show="192.168.2.252" value="c0a802fc"/>
    <field name="ip.src_host" showname="Source Host: 192.168.2.252" hide="yes" size="4" pos="26" show="192.168.2.252" value="c0a802fc"/>
    <field name="ip.host" showname="Source or Destination Host: 192.168.2.252" hide="yes" size="4" pos="26" show="192.168.2.252" value="c0a802fc"/>
    <field name="ip.dst" showname="Destination: 192.168.2.17 (192.168.2.17)" size="4" pos="30" show="192.168.2.17" value="c0a80211"/>
    <field name="ip.addr" showname="Source or Destination Address: 192.168.2.17 (192.168.2.17)" hide="yes" size="4" pos="30" show="192.168.2.17" value="c0a80211"/>
    <field name="ip.dst_host" showname="Destination Host: 192.168.2.17" hide="yes" size="4" pos="30" show="192.168.2.17" value="c0a80211"/>
    <field name="ip.host" showname="Source or Destination Host: 192.168.2.17" hide="yes" size="4" pos="30" show="192.168.2.17" value="c0a80211"/>
    <field name="" show="Source GeoIP: Unknown" size="4" pos="26" value="c0a802fc"/>
    <field name="" show="Destination GeoIP: Unknown" size="4" pos="30" value="c0a80211"/>
  </proto>
  <proto name="udp" showname="User Datagram Protocol, Src Port: twamp-control (862), Dst Port: omirr (808)" size="8" pos="34">
    <field name="udp.srcport" showname="Source port: twamp-control (862)" size="2" pos="34" show="862" value="035e"/>
    <field name="udp.dstport" showname="Destination port: omirr (808)" size="2" pos="36" show="808" value="0328"/>
    <field name="udp.port" showname="Source or Destination Port: 862" hide="yes" size="2" pos="34" show="862" value="035e"/>
    <field name="udp.port" showname="Source or Destination Port: 808" hide="yes" size="2" pos="36" show="808" value="0328"/>
    <field name="udp.length" showname="Length: 96" size="2" pos="38" show="96" value="0060"/>
    <field name="udp.checksum_coverage" showname="Checksum coverage: 96" hide="yes" size="0" pos="38" show="96"/>
    <field name="udp.checksum" showname="Checksum: 0xc63f [validation disabled]" size="2" pos="40" show="0xc63f" value="c63f">
      <field name="udp.checksum_good" showname="Good Checksum: False" size="2" pos="40" show="0" value="c63f"/>
      <field name="udp.checksum_bad" showname="Bad Checksum: False" size="2" pos="40" show="0" value="c63f"/>
    </field>
  </proto>
  <proto name="rpc" showname="Remote Procedure Call, Type:Call XID:0x40e26291" size="40" pos="42">
    <field name="rpc.xid" showname="XID: 0x40e26291 (1088578193)" size="4" pos="42" show="0x40e26291" value="40e26291"/>
    <field name="rpc.msgtyp" showname="Message Type: Call (0)" size="4" pos="46" show="0" value="00000000"/>
    <field name="rpc.version" showname="RPC Version: 2" size="4" pos="50" show="2" value="00000002"/>
    <field name="rpc.program" showname="Program: YPSERV (100004)" size="4" pos="54" show="100004" value="000186a4"/>
    <field name="rpc.programversion" showname="Program Version: 2" size="4" pos="58" show="2" value="00000002"/>
    <field name="rpc.procedure" showname="Procedure: MATCH (3)" size="4" pos="62" show="3" value="00000003"/>
    <field name="rpc.reqframe" showname="The reply to this request is in frame 4" size="0" pos="42" show="4"/>
    <field name="" show="Credentials" size="8" pos="66" value="0000000000000000">
      <field name="rpc.auth.flavor" showname="Flavor: AUTH_NULL (0)" size="4" pos="66" show="0" value="00000000"/>
      <field name="rpc.auth.length" showname="Length: 0" size="4" pos="70" show="0" value="00000000"/>
    </field>
    <field name="" show="Verifier" size="8" pos="74" value="0000000000000000">
      <field name="rpc.auth.flavor" showname="Flavor: AUTH_NULL (0)" size="4" pos="74" show="0" value="00000000"/>
      <field name="rpc.auth.length" showname="Length: 0" size="4" pos="78" show="0" value="00000000"/>
    </field>
  </proto>
  <proto name="ypserv" showname="Yellow Pages Service MATCH call EXAMPLE.COM/passwd.byname/user1" size="48" pos="82">
    <field name="rpc.programversion" showname="Program Version: 2" size="0" pos="124" show="2"/>
    <field name="ypserv.procedure_v2" showname="V2 Procedure: MATCH (3)" size="0" pos="124" show="3"/>
    <field name="" show="Domain: EXAMPLE.COM" size="16" pos="82" value="0000000b4558414d504c452e434f4d00">
      <field name="" show="length: 11" size="4" pos="82" value="0000000b"/>
      <field name="ypserv.domain" showname="contents: EXAMPLE.COM" size="11" pos="86" show="EXAMPLE.COM" value="4558414d504c452e434f4d"/>
      <field name="" show="fill bytes: opaque data" size="1" pos="97" value="00"/>
    </field>
    <field name="" show="Map Name: passwd.byname" size="20" pos="98" value="0000000d7061737377642e62796e616d65000000">
      <field name="" show="length: 13" size="4" pos="98" value="0000000d"/>
      <field name="ypserv.map" showname="contents: passwd.byname" size="13" pos="102" show="passwd.byname" value="7061737377642e62796e616d65"/>
      <field name="" show="fill bytes: opaque data" size="3" pos="115" value="000000"/>
    </field>
    <field name="" show="Key: user1" size="12" pos="118" value="000000057573657231000000">
      <field name="" show="length: 5" size="4" pos="118" value="00000005"/>
      <field name="ypserv.key" showname="contents: user1" size="5" pos="122" show="user1" value="7573657231"/>
      <field name="" show="fill bytes: opaque data" size="3" pos="127" value="000000"/>
    </field>
  </proto>
</packet>


<packet>
  <proto name="geninfo" pos="0" showname="General information" size="114">
    <field name="num" pos="0" show="4" showname="Number" value="4" size="114"/>
    <field name="len" pos="0" show="114" showname="Frame Length" value="72" size="114"/>
    <field name="caplen" pos="0" show="114" showname="Captured Length" value="72" size="114"/>
    <field name="timestamp" pos="0" show="Nov 21, 2012 22:07:51.319015000 CET" showname="Captured Time" value="1353532071.319015000" size="114"/>
  </proto>
  <proto name="frame" showname="Frame 4: 114 bytes on wire (912 bits), 114 bytes captured (912 bits)" size="114" pos="0">
    <field name="frame.encap_type" showname="Encapsulation type: Ethernet (1)" size="0" pos="0" show="1"/>
    <field name="frame.time" showname="Arrival Time: Nov 21, 2012 22:07:51.319015000 CET" size="0" pos="0" show="Nov 21, 2012 22:07:51.319015000"/>
    <field name="frame.offset_shift" showname="Time shift for this packet: 0.000000000 seconds" size="0" pos="0" show="0.000000000"/>
    <field name="frame.time_epoch" showname="Epoch Time: 1353532071.319015000 seconds" size="0" pos="0" show="1353532071.319015000"/>
    <field name="frame.time_delta" showname="Time delta from previous captured frame: 0.000322000 seconds" size="0" pos="0" show="0.000322000"/>
    <field name="frame.time_delta_displayed" showname="Time delta from previous displayed frame: 0.000322000 seconds" size="0" pos="0" show="0.000322000"/>
    <field name="frame.time_relative" showname="Time since reference or first frame: 1.827786000 seconds" size="0" pos="0" show="1.827786000"/>
    <field name="frame.number" showname="Frame Number: 4" size="0" pos="0" show="4"/>
    <field name="frame.len" showname="Frame Length: 114 bytes (912 bits)" size="0" pos="0" show="114"/>
    <field name="frame.cap_len" showname="Capture Length: 114 bytes (912 bits)" size="0" pos="0" show="114"/>
    <field name="frame.marked" showname="Frame is marked: False" size="0" pos="0" show="0"/>
    <field name="frame.ignored" showname="Frame is ignored: False" size="0" pos="0" show="0"/>
    <field name="frame.protocols" showname="Protocols in frame: eth:ip:udp:rpc" size="0" pos="0" show="eth:ip:udp:rpc"/>
  </proto>
  <proto name="eth" showname="Ethernet II, Src: CadmusCo_4d:1e:78 (08:00:27:4d:1e:78), Dst: Giga-Byt_7e:5d:d5 (00:24:1d:7e:5d:d5)" size="14" pos="0">
    <field name="eth.dst" showname="Destination: Giga-Byt_7e:5d:d5 (00:24:1d:7e:5d:d5)" size="6" pos="0" show="00:24:1d:7e:5d:d5" value="00241d7e5dd5">
      <field name="eth.addr" showname="Address: Giga-Byt_7e:5d:d5 (00:24:1d:7e:5d:d5)" size="6" pos="0" show="00:24:1d:7e:5d:d5" value="00241d7e5dd5"/>
      <field name="eth.lg" showname=".... ..0. .... .... .... .... = LG bit: Globally unique address (factory default)" size="3" pos="0" show="0" value="0" unmaskedvalue="00241d"/>
      <field name="eth.ig" showname=".... ...0 .... .... .... .... = IG bit: Individual address (unicast)" size="3" pos="0" show="0" value="0" unmaskedvalue="00241d"/>
    </field>
    <field name="eth.src" showname="Source: CadmusCo_4d:1e:78 (08:00:27:4d:1e:78)" size="6" pos="6" show="08:00:27:4d:1e:78" value="0800274d1e78">
      <field name="eth.addr" showname="Address: CadmusCo_4d:1e:78 (08:00:27:4d:1e:78)" size="6" pos="6" show="08:00:27:4d:1e:78" value="0800274d1e78"/>
      <field name="eth.lg" showname=".... ..0. .... .... .... .... = LG bit: Globally unique address (factory default)" size="3" pos="6" show="0" value="0" unmaskedvalue="080027"/>
      <field name="eth.ig" showname=".... ...0 .... .... .... .... = IG bit: Individual address (unicast)" size="3" pos="6" show="0" value="0" unmaskedvalue="080027"/>
    </field>
    <field name="eth.type" showname="Type: IP (0x0800)" size="2" pos="12" show="0x0800" value="0800"/>
  </proto>
  <proto name="ip" showname="Internet Protocol Version 4, Src: 192.168.2.17 (192.168.2.17), Dst: 192.168.2.252 (192.168.2.252)" size="20" pos="14">
    <field name="ip.version" showname="Version: 4" size="1" pos="14" show="4" value="45"/>
    <field name="ip.hdr_len" showname="Header length: 20 bytes" size="1" pos="14" show="20" value="45"/>
    <field name="ip.dsfield" showname="Differentiated Services Field: 0x00 (DSCP 0x00: Default; ECN: 0x00: Not-ECT (Not ECN-Capable Transport))" size="1" pos="15" show="0" value="00">
      <field name="ip.dsfield.dscp" showname="0000 00.. = Differentiated Services Codepoint: Default (0x00)" size="1" pos="15" show="0x00" value="0" unmaskedvalue="00"/>
      <field name="ip.dsfield.ecn" showname=".... ..00 = Explicit Congestion Notification: Not-ECT (Not ECN-Capable Transport) (0x00)" size="1" pos="15" show="0x00" value="0" unmaskedvalue="00"/>
    </field>
    <field name="ip.len" showname="Total Length: 100" size="2" pos="16" show="100" value="0064"/>
    <field name="ip.id" showname="Identification: 0x0000 (0)" size="2" pos="18" show="0x0000" value="0000"/>
    <field name="ip.flags" showname="Flags: 0x02 (Don&apos;t Fragment)" size="1" pos="20" show="0x02" value="40">
      <field name="ip.flags.rb" showname="0... .... = Reserved bit: Not set" size="1" pos="20" show="0" value="40"/>
      <field name="ip.flags.df" showname=".1.. .... = Don&apos;t fragment: Set" size="1" pos="20" show="1" value="40"/>
      <field name="ip.flags.mf" showname="..0. .... = More fragments: Not set" size="1" pos="20" show="0" value="40"/>
    </field>
    <field name="ip.frag_offset" showname="Fragment offset: 0" size="2" pos="20" show="0" value="4000"/>
    <field name="ip.ttl" showname="Time to live: 64" size="1" pos="22" show="64" value="40"/>
    <field name="ip.proto" showname="Protocol: UDP (17)" size="1" pos="23" show="17" value="11"/>
    <field name="ip.checksum" showname="Header checksum: 0xb42b [validation disabled]" size="2" pos="24" show="0xb42b" value="b42b">
      <field name="ip.checksum_good" showname="Good: False" size="2" pos="24" show="0" value="b42b"/>
      <field name="ip.checksum_bad" showname="Bad: False" size="2" pos="24" show="0" value="b42b"/>
    </field>
    <field name="ip.src" showname="Source: 192.168.2.17 (192.168.2.17)" size="4" pos="26" show="192.168.2.17" value="c0a80211"/>
    <field name="ip.addr" showname="Source or Destination Address: 192.168.2.17 (192.168.2.17)" hide="yes" size="4" pos="26" show="192.168.2.17" value="c0a80211"/>
    <field name="ip.src_host" showname="Source Host: 192.168.2.17" hide="yes" size="4" pos="26" show="192.168.2.17" value="c0a80211"/>
    <field name="ip.host" showname="Source or Destination Host: 192.168.2.17" hide="yes" size="4" pos="26" show="192.168.2.17" value="c0a80211"/>
    <field name="ip.dst" showname="Destination: 192.168.2.252 (192.168.2.252)" size="4" pos="30" show="192.168.2.252" value="c0a802fc"/>
    <field name="ip.addr" showname="Source or Destination Address: 192.168.2.252 (192.168.2.252)" hide="yes" size="4" pos="30" show="192.168.2.252" value="c0a802fc"/>
    <field name="ip.dst_host" showname="Destination Host: 192.168.2.252" hide="yes" size="4" pos="30" show="192.168.2.252" value="c0a802fc"/>
    <field name="ip.host" showname="Source or Destination Host: 192.168.2.252" hide="yes" size="4" pos="30" show="192.168.2.252" value="c0a802fc"/>
    <field name="" show="Source GeoIP: Unknown" size="4" pos="26" value="c0a80211"/>
    <field name="" show="Destination GeoIP: Unknown" size="4" pos="30" value="c0a802fc"/>
  </proto>
  <proto name="udp" showname="User Datagram Protocol, Src Port: omirr (808), Dst Port: twamp-control (862)" size="8" pos="34">
    <field name="udp.srcport" showname="Source port: omirr (808)" size="2" pos="34" show="808" value="0328"/>
    <field name="udp.dstport" showname="Destination port: twamp-control (862)" size="2" pos="36" show="862" value="035e"/>
    <field name="udp.port" showname="Source or Destination Port: 808" hide="yes" size="2" pos="34" show="808" value="0328"/>
    <field name="udp.port" showname="Source or Destination Port: 862" hide="yes" size="2" pos="36" show="862" value="035e"/>
    <field name="udp.length" showname="Length: 80" size="2" pos="38" show="80" value="0050"/>
    <field name="udp.checksum_coverage" showname="Checksum coverage: 80" hide="yes" size="0" pos="38" show="80"/>
    <field name="udp.checksum" showname="Checksum: 0x86bf [validation disabled]" size="2" pos="40" show="0x86bf" value="86bf">
      <field name="udp.checksum_good" showname="Good Checksum: False" size="2" pos="40" show="0" value="86bf"/>
      <field name="udp.checksum_bad" showname="Bad Checksum: False" size="2" pos="40" show="0" value="86bf"/>
    </field>
  </proto>
  <proto name="rpc" showname="Remote Procedure Call, Type:Reply XID:0x40e26291" size="24" pos="42">
    <field name="rpc.xid" showname="XID: 0x40e26291 (1088578193)" size="4" pos="42" show="0x40e26291" value="40e26291"/>
    <field name="rpc.msgtyp" showname="Message Type: Reply (1)" size="4" pos="46" show="1" value="00000001"/>
    <field name="rpc.program" showname="Program: YPSERV (100004)" size="0" pos="42" show="100004"/>
    <field name="rpc.programversion" showname="Program Version: 2" size="0" pos="42" show="2"/>
    <field name="rpc.procedure" showname="Procedure: MATCH (3)" size="0" pos="42" show="3"/>
    <field name="rpc.replystat" showname="Reply State: accepted (0)" size="4" pos="50" show="0" value="00000000"/>
    <field name="rpc.repframe" showname="This is a reply to a request in frame 3" size="0" pos="42" show="3"/>
    <field name="rpc.time" showname="Time from request: 0.000322000 seconds" size="0" pos="54" show="0.000322000"/>
    <field name="" show="Verifier" size="8" pos="54" value="0000000000000000">
      <field name="rpc.auth.flavor" showname="Flavor: AUTH_NULL (0)" size="4" pos="54" show="0" value="00000000"/>
      <field name="rpc.auth.length" showname="Length: 0" size="4" pos="58" show="0" value="00000000"/>
    </field>
    <field name="rpc.state_accept" showname="Accept State: RPC executed successfully (0)" size="4" pos="62" show="0" value="00000000"/>
  </proto>
  <proto name="ypserv" showname="Yellow Pages Service MATCH reply user1:!!:501:501::/home/user1:/bin/bash" size="48" pos="66">
    <field name="rpc.programversion" showname="Program Version: 2" size="0" pos="108" show="2"/>
    <field name="ypserv.procedure_v2" showname="V2 Procedure: MATCH (3)" size="0" pos="108" show="3"/>
    <field name="ypserv.status" showname="Status: YP_TRUE (1)" size="4" pos="66" show="1" value="00000001"/>
    <field name="" show="Value: user1:!!:501:501::/home/user1:/bin/bash" size="44" pos="70" value="0000002775736572313a21213a3530313a3530313a3a2f686f6d652f75736572313a2f62696e2f6261736800">
      <field name="" show="length: 39" size="4" pos="70" value="00000027"/>
      <field name="ypserv.value" showname="contents: user1:!!:501:501::/home/user1:/bin/bash" size="39" pos="74" show="user1:!!:501:501::/home/user1:/bin/bash" value="75736572313a21213a3530313a3530313a3a2f686f6d652f75736572313a2f62696e2f62617368"/>
      <field name="" show="fill bytes: opaque data" size="1" pos="113" value="00"/>
    </field>
  </proto>
</packet>


<packet>
  <proto name="geninfo" pos="0" showname="General information" size="130">
    <field name="num" pos="0" show="5" showname="Number" value="5" size="130"/>
    <field name="len" pos="0" show="130" showname="Frame Length" value="82" size="130"/>
    <field name="caplen" pos="0" show="130" showname="Captured Length" value="82" size="130"/>
    <field name="timestamp" pos="0" show="Nov 21, 2012 22:07:51.321675000 CET" showname="Captured Time" value="1353532071.321675000" size="130"/>
  </proto>
  <proto name="frame" showname="Frame 5: 130 bytes on wire (1040 bits), 130 bytes captured (1040 bits)" size="130" pos="0">
    <field name="frame.encap_type" showname="Encapsulation type: Ethernet (1)" size="0" pos="0" show="1"/>
    <field name="frame.time" showname="Arrival Time: Nov 21, 2012 22:07:51.321675000 CET" size="0" pos="0" show="Nov 21, 2012 22:07:51.321675000"/>
    <field name="frame.offset_shift" showname="Time shift for this packet: 0.000000000 seconds" size="0" pos="0" show="0.000000000"/>
    <field name="frame.time_epoch" showname="Epoch Time: 1353532071.321675000 seconds" size="0" pos="0" show="1353532071.321675000"/>
    <field name="frame.time_delta" showname="Time delta from previous captured frame: 0.002660000 seconds" size="0" pos="0" show="0.002660000"/>
    <field name="frame.time_delta_displayed" showname="Time delta from previous displayed frame: 0.002660000 seconds" size="0" pos="0" show="0.002660000"/>
    <field name="frame.time_relative" showname="Time since reference or first frame: 1.830446000 seconds" size="0" pos="0" show="1.830446000"/>
    <field name="frame.number" showname="Frame Number: 5" size="0" pos="0" show="5"/>
    <field name="frame.len" showname="Frame Length: 130 bytes (1040 bits)" size="0" pos="0" show="130"/>
    <field name="frame.cap_len" showname="Capture Length: 130 bytes (1040 bits)" size="0" pos="0" show="130"/>
    <field name="frame.marked" showname="Frame is marked: False" size="0" pos="0" show="0"/>
    <field name="frame.ignored" showname="Frame is ignored: False" size="0" pos="0" show="0"/>
    <field name="frame.protocols" showname="Protocols in frame: eth:ip:udp:rpc" size="0" pos="0" show="eth:ip:udp:rpc"/>
  </proto>
  <proto name="eth" showname="Ethernet II, Src: Giga-Byt_7e:5d:d5 (00:24:1d:7e:5d:d5), Dst: CadmusCo_4d:1e:78 (08:00:27:4d:1e:78)" size="14" pos="0">
    <field name="eth.dst" showname="Destination: CadmusCo_4d:1e:78 (08:00:27:4d:1e:78)" size="6" pos="0" show="08:00:27:4d:1e:78" value="0800274d1e78">
      <field name="eth.addr" showname="Address: CadmusCo_4d:1e:78 (08:00:27:4d:1e:78)" size="6" pos="0" show="08:00:27:4d:1e:78" value="0800274d1e78"/>
      <field name="eth.lg" showname=".... ..0. .... .... .... .... = LG bit: Globally unique address (factory default)" size="3" pos="0" show="0" value="0" unmaskedvalue="080027"/>
      <field name="eth.ig" showname=".... ...0 .... .... .... .... = IG bit: Individual address (unicast)" size="3" pos="0" show="0" value="0" unmaskedvalue="080027"/>
    </field>
    <field name="eth.src" showname="Source: Giga-Byt_7e:5d:d5 (00:24:1d:7e:5d:d5)" size="6" pos="6" show="00:24:1d:7e:5d:d5" value="00241d7e5dd5">
      <field name="eth.addr" showname="Address: Giga-Byt_7e:5d:d5 (00:24:1d:7e:5d:d5)" size="6" pos="6" show="00:24:1d:7e:5d:d5" value="00241d7e5dd5"/>
      <field name="eth.lg" showname=".... ..0. .... .... .... .... = LG bit: Globally unique address (factory default)" size="3" pos="6" show="0" value="0" unmaskedvalue="00241d"/>
      <field name="eth.ig" showname=".... ...0 .... .... .... .... = IG bit: Individual address (unicast)" size="3" pos="6" show="0" value="0" unmaskedvalue="00241d"/>
    </field>
    <field name="eth.type" showname="Type: IP (0x0800)" size="2" pos="12" show="0x0800" value="0800"/>
  </proto>
  <proto name="ip" showname="Internet Protocol Version 4, Src: 192.168.2.252 (192.168.2.252), Dst: 192.168.2.17 (192.168.2.17)" size="20" pos="14">
    <field name="ip.version" showname="Version: 4" size="1" pos="14" show="4" value="45"/>
    <field name="ip.hdr_len" showname="Header length: 20 bytes" size="1" pos="14" show="20" value="45"/>
    <field name="ip.dsfield" showname="Differentiated Services Field: 0x00 (DSCP 0x00: Default; ECN: 0x00: Not-ECT (Not ECN-Capable Transport))" size="1" pos="15" show="0" value="00">
      <field name="ip.dsfield.dscp" showname="0000 00.. = Differentiated Services Codepoint: Default (0x00)" size="1" pos="15" show="0x00" value="0" unmaskedvalue="00"/>
      <field name="ip.dsfield.ecn" showname=".... ..00 = Explicit Congestion Notification: Not-ECT (Not ECN-Capable Transport) (0x00)" size="1" pos="15" show="0x00" value="0" unmaskedvalue="00"/>
    </field>
    <field name="ip.len" showname="Total Length: 116" size="2" pos="16" show="116" value="0074"/>
    <field name="ip.id" showname="Identification: 0x0000 (0)" size="2" pos="18" show="0x0000" value="0000"/>
    <field name="ip.flags" showname="Flags: 0x02 (Don&apos;t Fragment)" size="1" pos="20" show="0x02" value="40">
      <field name="ip.flags.rb" showname="0... .... = Reserved bit: Not set" size="1" pos="20" show="0" value="40"/>
      <field name="ip.flags.df" showname=".1.. .... = Don&apos;t fragment: Set" size="1" pos="20" show="1" value="40"/>
      <field name="ip.flags.mf" showname="..0. .... = More fragments: Not set" size="1" pos="20" show="0" value="40"/>
    </field>
    <field name="ip.frag_offset" showname="Fragment offset: 0" size="2" pos="20" show="0" value="4000"/>
    <field name="ip.ttl" showname="Time to live: 64" size="1" pos="22" show="64" value="40"/>
    <field name="ip.proto" showname="Protocol: UDP (17)" size="1" pos="23" show="17" value="11"/>
    <field name="ip.checksum" showname="Header checksum: 0xb41b [validation disabled]" size="2" pos="24" show="0xb41b" value="b41b">
      <field name="ip.checksum_good" showname="Good: False" size="2" pos="24" show="0" value="b41b"/>
      <field name="ip.checksum_bad" showname="Bad: False" size="2" pos="24" show="0" value="b41b"/>
    </field>
    <field name="ip.src" showname="Source: 192.168.2.252 (192.168.2.252)" size="4" pos="26" show="192.168.2.252" value="c0a802fc"/>
    <field name="ip.addr" showname="Source or Destination Address: 192.168.2.252 (192.168.2.252)" hide="yes" size="4" pos="26" show="192.168.2.252" value="c0a802fc"/>
    <field name="ip.src_host" showname="Source Host: 192.168.2.252" hide="yes" size="4" pos="26" show="192.168.2.252" value="c0a802fc"/>
    <field name="ip.host" showname="Source or Destination Host: 192.168.2.252" hide="yes" size="4" pos="26" show="192.168.2.252" value="c0a802fc"/>
    <field name="ip.dst" showname="Destination: 192.168.2.17 (192.168.2.17)" size="4" pos="30" show="192.168.2.17" value="c0a80211"/>
    <field name="ip.addr" showname="Source or Destination Address: 192.168.2.17 (192.168.2.17)" hide="yes" size="4" pos="30" show="192.168.2.17" value="c0a80211"/>
    <field name="ip.dst_host" showname="Destination Host: 192.168.2.17" hide="yes" size="4" pos="30" show="192.168.2.17" value="c0a80211"/>
    <field name="ip.host" showname="Source or Destination Host: 192.168.2.17" hide="yes" size="4" pos="30" show="192.168.2.17" value="c0a80211"/>
    <field name="" show="Source GeoIP: Unknown" size="4" pos="26" value="c0a802fc"/>
    <field name="" show="Destination GeoIP: Unknown" size="4" pos="30" value="c0a80211"/>
  </proto>
  <proto name="udp" showname="User Datagram Protocol, Src Port: 863 (863), Dst Port: omirr (808)" size="8" pos="34">
    <field name="udp.srcport" showname="Source port: 863 (863)" size="2" pos="34" show="863" value="035f"/>
    <field name="udp.dstport" showname="Destination port: omirr (808)" size="2" pos="36" show="808" value="0328"/>
    <field name="udp.port" showname="Source or Destination Port: 863" hide="yes" size="2" pos="34" show="863" value="035f"/>
    <field name="udp.port" showname="Source or Destination Port: 808" hide="yes" size="2" pos="36" show="808" value="0328"/>
    <field name="udp.length" showname="Length: 96" size="2" pos="38" show="96" value="0060"/>
    <field name="udp.checksum_coverage" showname="Checksum coverage: 96" hide="yes" size="0" pos="38" show="96"/>
    <field name="udp.checksum" showname="Checksum: 0xc547 [validation disabled]" size="2" pos="40" show="0xc547" value="c547">
      <field name="udp.checksum_good" showname="Good Checksum: False" size="2" pos="40" show="0" value="c547"/>
      <field name="udp.checksum_bad" showname="Bad Checksum: False" size="2" pos="40" show="0" value="c547"/>
    </field>
  </proto>
  <proto name="rpc" showname="Remote Procedure Call, Type:Call XID:0x58994bd1" size="40" pos="42">
    <field name="rpc.xid" showname="XID: 0x58994bd1 (1486441425)" size="4" pos="42" show="0x58994bd1" value="58994bd1"/>
    <field name="rpc.msgtyp" showname="Message Type: Call (0)" size="4" pos="46" show="0" value="00000000"/>
    <field name="rpc.version" showname="RPC Version: 2" size="4" pos="50" show="2" value="00000002"/>
    <field name="rpc.program" showname="Program: YPSERV (100004)" size="4" pos="54" show="100004" value="000186a4"/>
    <field name="rpc.programversion" showname="Program Version: 2" size="4" pos="58" show="2" value="00000002"/>
    <field name="rpc.procedure" showname="Procedure: MATCH (3)" size="4" pos="62" show="3" value="00000003"/>
    <field name="rpc.reqframe" showname="The reply to this request is in frame 6" size="0" pos="42" show="6"/>
    <field name="" show="Credentials" size="8" pos="66" value="0000000000000000">
      <field name="rpc.auth.flavor" showname="Flavor: AUTH_NULL (0)" size="4" pos="66" show="0" value="00000000"/>
      <field name="rpc.auth.length" showname="Length: 0" size="4" pos="70" show="0" value="00000000"/>
    </field>
    <field name="" show="Verifier" size="8" pos="74" value="0000000000000000">
      <field name="rpc.auth.flavor" showname="Flavor: AUTH_NULL (0)" size="4" pos="74" show="0" value="00000000"/>
      <field name="rpc.auth.length" showname="Length: 0" size="4" pos="78" show="0" value="00000000"/>
    </field>
  </proto>
  <proto name="ypserv" showname="Yellow Pages Service MATCH call EXAMPLE.COM/passwd.byname/user1" size="48" pos="82">
    <field name="rpc.programversion" showname="Program Version: 2" size="0" pos="124" show="2"/>
    <field name="ypserv.procedure_v2" showname="V2 Procedure: MATCH (3)" size="0" pos="124" show="3"/>
    <field name="" show="Domain: EXAMPLE.COM" size="16" pos="82" value="0000000b4558414d504c452e434f4d00">
      <field name="" show="length: 11" size="4" pos="82" value="0000000b"/>
      <field name="ypserv.domain" showname="contents: EXAMPLE.COM" size="11" pos="86" show="EXAMPLE.COM" value="4558414d504c452e434f4d"/>
      <field name="" show="fill bytes: opaque data" size="1" pos="97" value="00"/>
    </field>
    <field name="" show="Map Name: passwd.byname" size="20" pos="98" value="0000000d7061737377642e62796e616d65000000">
      <field name="" show="length: 13" size="4" pos="98" value="0000000d"/>
      <field name="ypserv.map" showname="contents: passwd.byname" size="13" pos="102" show="passwd.byname" value="7061737377642e62796e616d65"/>
      <field name="" show="fill bytes: opaque data" size="3" pos="115" value="000000"/>
    </field>
    <field name="" show="Key: user1" size="12" pos="118" value="000000057573657231000000">
      <field name="" show="length: 5" size="4" pos="118" value="00000005"/>
      <field name="ypserv.key" showname="contents: user1" size="5" pos="122" show="user1" value="7573657231"/>
      <field name="" show="fill bytes: opaque data" size="3" pos="127" value="000000"/>
    </field>
  </proto>
</packet>


<packet>
  <proto name="geninfo" pos="0" showname="General information" size="114">
    <field name="num" pos="0" show="6" showname="Number" value="6" size="114"/>
    <field name="len" pos="0" show="114" showname="Frame Length" value="72" size="114"/>
    <field name="caplen" pos="0" show="114" showname="Captured Length" value="72" size="114"/>
    <field name="timestamp" pos="0" show="Nov 21, 2012 22:07:51.322044000 CET" showname="Captured Time" value="1353532071.322044000" size="114"/>
  </proto>
  <proto name="frame" showname="Frame 6: 114 bytes on wire (912 bits), 114 bytes captured (912 bits)" size="114" pos="0">
    <field name="frame.encap_type" showname="Encapsulation type: Ethernet (1)" size="0" pos="0" show="1"/>
    <field name="frame.time" showname="Arrival Time: Nov 21, 2012 22:07:51.322044000 CET" size="0" pos="0" show="Nov 21, 2012 22:07:51.322044000"/>
    <field name="frame.offset_shift" showname="Time shift for this packet: 0.000000000 seconds" size="0" pos="0" show="0.000000000"/>
    <field name="frame.time_epoch" showname="Epoch Time: 1353532071.322044000 seconds" size="0" pos="0" show="1353532071.322044000"/>
    <field name="frame.time_delta" showname="Time delta from previous captured frame: 0.000369000 seconds" size="0" pos="0" show="0.000369000"/>
    <field name="frame.time_delta_displayed" showname="Time delta from previous displayed frame: 0.000369000 seconds" size="0" pos="0" show="0.000369000"/>
    <field name="frame.time_relative" showname="Time since reference or first frame: 1.830815000 seconds" size="0" pos="0" show="1.830815000"/>
    <field name="frame.number" showname="Frame Number: 6" size="0" pos="0" show="6"/>
    <field name="frame.len" showname="Frame Length: 114 bytes (912 bits)" size="0" pos="0" show="114"/>
    <field name="frame.cap_len" showname="Capture Length: 114 bytes (912 bits)" size="0" pos="0" show="114"/>
    <field name="frame.marked" showname="Frame is marked: False" size="0" pos="0" show="0"/>
    <field name="frame.ignored" showname="Frame is ignored: False" size="0" pos="0" show="0"/>
    <field name="frame.protocols" showname="Protocols in frame: eth:ip:udp:rpc" size="0" pos="0" show="eth:ip:udp:rpc"/>
  </proto>
  <proto name="eth" showname="Ethernet II, Src: CadmusCo_4d:1e:78 (08:00:27:4d:1e:78), Dst: Giga-Byt_7e:5d:d5 (00:24:1d:7e:5d:d5)" size="14" pos="0">
    <field name="eth.dst" showname="Destination: Giga-Byt_7e:5d:d5 (00:24:1d:7e:5d:d5)" size="6" pos="0" show="00:24:1d:7e:5d:d5" value="00241d7e5dd5">
      <field name="eth.addr" showname="Address: Giga-Byt_7e:5d:d5 (00:24:1d:7e:5d:d5)" size="6" pos="0" show="00:24:1d:7e:5d:d5" value="00241d7e5dd5"/>
      <field name="eth.lg" showname=".... ..0. .... .... .... .... = LG bit: Globally unique address (factory default)" size="3" pos="0" show="0" value="0" unmaskedvalue="00241d"/>
      <field name="eth.ig" showname=".... ...0 .... .... .... .... = IG bit: Individual address (unicast)" size="3" pos="0" show="0" value="0" unmaskedvalue="00241d"/>
    </field>
    <field name="eth.src" showname="Source: CadmusCo_4d:1e:78 (08:00:27:4d:1e:78)" size="6" pos="6" show="08:00:27:4d:1e:78" value="0800274d1e78">
      <field name="eth.addr" showname="Address: CadmusCo_4d:1e:78 (08:00:27:4d:1e:78)" size="6" pos="6" show="08:00:27:4d:1e:78" value="0800274d1e78"/>
      <field name="eth.lg" showname=".... ..0. .... .... .... .... = LG bit: Globally unique address (factory default)" size="3" pos="6" show="0" value="0" unmaskedvalue="080027"/>
      <field name="eth.ig" showname=".... ...0 .... .... .... .... = IG bit: Individual address (unicast)" size="3" pos="6" show="0" value="0" unmaskedvalue="080027"/>
    </field>
    <field name="eth.type" showname="Type: IP (0x0800)" size="2" pos="12" show="0x0800" value="0800"/>
  </proto>
  <proto name="ip" showname="Internet Protocol Version 4, Src: 192.168.2.17 (192.168.2.17), Dst: 192.168.2.252 (192.168.2.252)" size="20" pos="14">
    <field name="ip.version" showname="Version: 4" size="1" pos="14" show="4" value="45"/>
    <field name="ip.hdr_len" showname="Header length: 20 bytes" size="1" pos="14" show="20" value="45"/>
    <field name="ip.dsfield" showname="Differentiated Services Field: 0x00 (DSCP 0x00: Default; ECN: 0x00: Not-ECT (Not ECN-Capable Transport))" size="1" pos="15" show="0" value="00">
      <field name="ip.dsfield.dscp" showname="0000 00.. = Differentiated Services Codepoint: Default (0x00)" size="1" pos="15" show="0x00" value="0" unmaskedvalue="00"/>
      <field name="ip.dsfield.ecn" showname=".... ..00 = Explicit Congestion Notification: Not-ECT (Not ECN-Capable Transport) (0x00)" size="1" pos="15" show="0x00" value="0" unmaskedvalue="00"/>
    </field>
    <field name="ip.len" showname="Total Length: 100" size="2" pos="16" show="100" value="0064"/>
    <field name="ip.id" showname="Identification: 0x0000 (0)" size="2" pos="18" show="0x0000" value="0000"/>
    <field name="ip.flags" showname="Flags: 0x02 (Don&apos;t Fragment)" size="1" pos="20" show="0x02" value="40">
      <field name="ip.flags.rb" showname="0... .... = Reserved bit: Not set" size="1" pos="20" show="0" value="40"/>
      <field name="ip.flags.df" showname=".1.. .... = Don&apos;t fragment: Set" size="1" pos="20" show="1" value="40"/>
      <field name="ip.flags.mf" showname="..0. .... = More fragments: Not set" size="1" pos="20" show="0" value="40"/>
    </field>
    <field name="ip.frag_offset" showname="Fragment offset: 0" size="2" pos="20" show="0" value="4000"/>
    <field name="ip.ttl" showname="Time to live: 64" size="1" pos="22" show="64" value="40"/>
    <field name="ip.proto" showname="Protocol: UDP (17)" size="1" pos="23" show="17" value="11"/>
    <field name="ip.checksum" showname="Header checksum: 0xb42b [validation disabled]" size="2" pos="24" show="0xb42b" value="b42b">
      <field name="ip.checksum_good" showname="Good: False" size="2" pos="24" show="0" value="b42b"/>
      <field name="ip.checksum_bad" showname="Bad: False" size="2" pos="24" show="0" value="b42b"/>
    </field>
    <field name="ip.src" showname="Source: 192.168.2.17 (192.168.2.17)" size="4" pos="26" show="192.168.2.17" value="c0a80211"/>
    <field name="ip.addr" showname="Source or Destination Address: 192.168.2.17 (192.168.2.17)" hide="yes" size="4" pos="26" show="192.168.2.17" value="c0a80211"/>
    <field name="ip.src_host" showname="Source Host: 192.168.2.17" hide="yes" size="4" pos="26" show="192.168.2.17" value="c0a80211"/>
    <field name="ip.host" showname="Source or Destination Host: 192.168.2.17" hide="yes" size="4" pos="26" show="192.168.2.17" value="c0a80211"/>
    <field name="ip.dst" showname="Destination: 192.168.2.252 (192.168.2.252)" size="4" pos="30" show="192.168.2.252" value="c0a802fc"/>
    <field name="ip.addr" showname="Source or Destination Address: 192.168.2.252 (192.168.2.252)" hide="yes" size="4" pos="30" show="192.168.2.252" value="c0a802fc"/>
    <field name="ip.dst_host" showname="Destination Host: 192.168.2.252" hide="yes" size="4" pos="30" show="192.168.2.252" value="c0a802fc"/>
    <field name="ip.host" showname="Source or Destination Host: 192.168.2.252" hide="yes" size="4" pos="30" show="192.168.2.252" value="c0a802fc"/>
    <field name="" show="Source GeoIP: Unknown" size="4" pos="26" value="c0a80211"/>
    <field name="" show="Destination GeoIP: Unknown" size="4" pos="30" value="c0a802fc"/>
  </proto>
  <proto name="udp" showname="User Datagram Protocol, Src Port: omirr (808), Dst Port: 863 (863)" size="8" pos="34">
    <field name="udp.srcport" showname="Source port: omirr (808)" size="2" pos="34" show="808" value="0328"/>
    <field name="udp.dstport" showname="Destination port: 863 (863)" size="2" pos="36" show="863" value="035f"/>
    <field name="udp.port" showname="Source or Destination Port: 808" hide="yes" size="2" pos="34" show="808" value="0328"/>
    <field name="udp.port" showname="Source or Destination Port: 863" hide="yes" size="2" pos="36" show="863" value="035f"/>
    <field name="udp.length" showname="Length: 80" size="2" pos="38" show="80" value="0050"/>
    <field name="udp.checksum_coverage" showname="Checksum coverage: 80" hide="yes" size="0" pos="38" show="80"/>
    <field name="udp.checksum" showname="Checksum: 0x86bf [validation disabled]" size="2" pos="40" show="0x86bf" value="86bf">
      <field name="udp.checksum_good" showname="Good Checksum: False" size="2" pos="40" show="0" value="86bf"/>
      <field name="udp.checksum_bad" showname="Bad Checksum: False" size="2" pos="40" show="0" value="86bf"/>
    </field>
  </proto>
  <proto name="rpc" showname="Remote Procedure Call, Type:Reply XID:0x58994bd1" size="24" pos="42">
    <field name="rpc.xid" showname="XID: 0x58994bd1 (1486441425)" size="4" pos="42" show="0x58994bd1" value="58994bd1"/>
    <field name="rpc.msgtyp" showname="Message Type: Reply (1)" size="4" pos="46" show="1" value="00000001"/>
    <field name="rpc.program" showname="Program: YPSERV (100004)" size="0" pos="42" show="100004"/>
    <field name="rpc.programversion" showname="Program Version: 2" size="0" pos="42" show="2"/>
    <field name="rpc.procedure" showname="Procedure: MATCH (3)" size="0" pos="42" show="3"/>
    <field name="rpc.replystat" showname="Reply State: accepted (0)" size="4" pos="50" show="0" value="00000000"/>
    <field name="rpc.repframe" showname="This is a reply to a request in frame 5" size="0" pos="42" show="5"/>
    <field name="rpc.time" showname="Time from request: 0.000369000 seconds" size="0" pos="54" show="0.000369000"/>
    <field name="" show="Verifier" size="8" pos="54" value="0000000000000000">
      <field name="rpc.auth.flavor" showname="Flavor: AUTH_NULL (0)" size="4" pos="54" show="0" value="00000000"/>
      <field name="rpc.auth.length" showname="Length: 0" size="4" pos="58" show="0" value="00000000"/>
    </field>
    <field name="rpc.state_accept" showname="Accept State: RPC executed successfully (0)" size="4" pos="62" show="0" value="00000000"/>
  </proto>
  <proto name="ypserv" showname="Yellow Pages Service MATCH reply user1:!!:501:501::/home/user1:/bin/bash" size="48" pos="66">
    <field name="rpc.programversion" showname="Program Version: 2" size="0" pos="108" show="2"/>
    <field name="ypserv.procedure_v2" showname="V2 Procedure: MATCH (3)" size="0" pos="108" show="3"/>
    <field name="ypserv.status" showname="Status: YP_TRUE (1)" size="4" pos="66" show="1" value="00000001"/>
    <field name="" show="Value: user1:!!:501:501::/home/user1:/bin/bash" size="44" pos="70" value="0000002775736572313a21213a3530313a3530313a3a2f686f6d652f75736572313a2f62696e2f6261736800">
      <field name="" show="length: 39" size="4" pos="70" value="00000027"/>
      <field name="ypserv.value" showname="contents: user1:!!:501:501::/home/user1:/bin/bash" size="39" pos="74" show="user1:!!:501:501::/home/user1:/bin/bash" value="75736572313a21213a3530313a3530313a3a2f686f6d652f75736572313a2f62696e2f62617368"/>
      <field name="" show="fill bytes: opaque data" size="1" pos="113" value="00"/>
    </field>
  </proto>
</packet>


<packet>
  <proto name="geninfo" pos="0" showname="General information" size="130">
    <field name="num" pos="0" show="7" showname="Number" value="7" size="130"/>
    <field name="len" pos="0" show="130" showname="Frame Length" value="82" size="130"/>
    <field name="caplen" pos="0" show="130" showname="Captured Length" value="82" size="130"/>
    <field name="timestamp" pos="0" show="Nov 21, 2012 22:07:51.324598000 CET" showname="Captured Time" value="1353532071.324598000" size="130"/>
  </proto>
  <proto name="frame" showname="Frame 7: 130 bytes on wire (1040 bits), 130 bytes captured (1040 bits)" size="130" pos="0">
    <field name="frame.encap_type" showname="Encapsulation type: Ethernet (1)" size="0" pos="0" show="1"/>
    <field name="frame.time" showname="Arrival Time: Nov 21, 2012 22:07:51.324598000 CET" size="0" pos="0" show="Nov 21, 2012 22:07:51.324598000"/>
    <field name="frame.offset_shift" showname="Time shift for this packet: 0.000000000 seconds" size="0" pos="0" show="0.000000000"/>
    <field name="frame.time_epoch" showname="Epoch Time: 1353532071.324598000 seconds" size="0" pos="0" show="1353532071.324598000"/>
    <field name="frame.time_delta" showname="Time delta from previous captured frame: 0.002554000 seconds" size="0" pos="0" show="0.002554000"/>
    <field name="frame.time_delta_displayed" showname="Time delta from previous displayed frame: 0.002554000 seconds" size="0" pos="0" show="0.002554000"/>
    <field name="frame.time_relative" showname="Time since reference or first frame: 1.833369000 seconds" size="0" pos="0" show="1.833369000"/>
    <field name="frame.number" showname="Frame Number: 7" size="0" pos="0" show="7"/>
    <field name="frame.len" showname="Frame Length: 130 bytes (1040 bits)" size="0" pos="0" show="130"/>
    <field name="frame.cap_len" showname="Capture Length: 130 bytes (1040 bits)" size="0" pos="0" show="130"/>
    <field name="frame.marked" showname="Frame is marked: False" size="0" pos="0" show="0"/>
    <field name="frame.ignored" showname="Frame is ignored: False" size="0" pos="0" show="0"/>
    <field name="frame.protocols" showname="Protocols in frame: eth:ip:udp:rpc" size="0" pos="0" show="eth:ip:udp:rpc"/>
  </proto>
  <proto name="eth" showname="Ethernet II, Src: Giga-Byt_7e:5d:d5 (00:24:1d:7e:5d:d5), Dst: CadmusCo_4d:1e:78 (08:00:27:4d:1e:78)" size="14" pos="0">
    <field name="eth.dst" showname="Destination: CadmusCo_4d:1e:78 (08:00:27:4d:1e:78)" size="6" pos="0" show="08:00:27:4d:1e:78" value="0800274d1e78">
      <field name="eth.addr" showname="Address: CadmusCo_4d:1e:78 (08:00:27:4d:1e:78)" size="6" pos="0" show="08:00:27:4d:1e:78" value="0800274d1e78"/>
      <field name="eth.lg" showname=".... ..0. .... .... .... .... = LG bit: Globally unique address (factory default)" size="3" pos="0" show="0" value="0" unmaskedvalue="080027"/>
      <field name="eth.ig" showname=".... ...0 .... .... .... .... = IG bit: Individual address (unicast)" size="3" pos="0" show="0" value="0" unmaskedvalue="080027"/>
    </field>
    <field name="eth.src" showname="Source: Giga-Byt_7e:5d:d5 (00:24:1d:7e:5d:d5)" size="6" pos="6" show="00:24:1d:7e:5d:d5" value="00241d7e5dd5">
      <field name="eth.addr" showname="Address: Giga-Byt_7e:5d:d5 (00:24:1d:7e:5d:d5)" size="6" pos="6" show="00:24:1d:7e:5d:d5" value="00241d7e5dd5"/>
      <field name="eth.lg" showname=".... ..0. .... .... .... .... = LG bit: Globally unique address (factory default)" size="3" pos="6" show="0" value="0" unmaskedvalue="00241d"/>
      <field name="eth.ig" showname=".... ...0 .... .... .... .... = IG bit: Individual address (unicast)" size="3" pos="6" show="0" value="0" unmaskedvalue="00241d"/>
    </field>
    <field name="eth.type" showname="Type: IP (0x0800)" size="2" pos="12" show="0x0800" value="0800"/>
  </proto>
  <proto name="ip" showname="Internet Protocol Version 4, Src: 192.168.2.252 (192.168.2.252), Dst: 192.168.2.17 (192.168.2.17)" size="20" pos="14">
    <field name="ip.version" showname="Version: 4" size="1" pos="14" show="4" value="45"/>
    <field name="ip.hdr_len" showname="Header length: 20 bytes" size="1" pos="14" show="20" value="45"/>
    <field name="ip.dsfield" showname="Differentiated Services Field: 0x00 (DSCP 0x00: Default; ECN: 0x00: Not-ECT (Not ECN-Capable Transport))" size="1" pos="15" show="0" value="00">
      <field name="ip.dsfield.dscp" showname="0000 00.. = Differentiated Services Codepoint: Default (0x00)" size="1" pos="15" show="0x00" value="0" unmaskedvalue="00"/>
      <field name="ip.dsfield.ecn" showname=".... ..00 = Explicit Congestion Notification: Not-ECT (Not ECN-Capable Transport) (0x00)" size="1" pos="15" show="0x00" value="0" unmaskedvalue="00"/>
    </field>
    <field name="ip.len" showname="Total Length: 116" size="2" pos="16" show="116" value="0074"/>
    <field name="ip.id" showname="Identification: 0x0000 (0)" size="2" pos="18" show="0x0000" value="0000"/>
    <field name="ip.flags" showname="Flags: 0x02 (Don&apos;t Fragment)" size="1" pos="20" show="0x02" value="40">
      <field name="ip.flags.rb" showname="0... .... = Reserved bit: Not set" size="1" pos="20" show="0" value="40"/>
      <field name="ip.flags.df" showname=".1.. .... = Don&apos;t fragment: Set" size="1" pos="20" show="1" value="40"/>
      <field name="ip.flags.mf" showname="..0. .... = More fragments: Not set" size="1" pos="20" show="0" value="40"/>
    </field>
    <field name="ip.frag_offset" showname="Fragment offset: 0" size="2" pos="20" show="0" value="4000"/>
    <field name="ip.ttl" showname="Time to live: 64" size="1" pos="22" show="64" value="40"/>
    <field name="ip.proto" showname="Protocol: UDP (17)" size="1" pos="23" show="17" value="11"/>
    <field name="ip.checksum" showname="Header checksum: 0xb41b [validation disabled]" size="2" pos="24" show="0xb41b" value="b41b">
      <field name="ip.checksum_good" showname="Good: False" size="2" pos="24" show="0" value="b41b"/>
      <field name="ip.checksum_bad" showname="Bad: False" size="2" pos="24" show="0" value="b41b"/>
    </field>
    <field name="ip.src" showname="Source: 192.168.2.252 (192.168.2.252)" size="4" pos="26" show="192.168.2.252" value="c0a802fc"/>
    <field name="ip.addr" showname="Source or Destination Address: 192.168.2.252 (192.168.2.252)" hide="yes" size="4" pos="26" show="192.168.2.252" value="c0a802fc"/>
    <field name="ip.src_host" showname="Source Host: 192.168.2.252" hide="yes" size="4" pos="26" show="192.168.2.252" value="c0a802fc"/>
    <field name="ip.host" showname="Source or Destination Host: 192.168.2.252" hide="yes" size="4" pos="26" show="192.168.2.252" value="c0a802fc"/>
    <field name="ip.dst" showname="Destination: 192.168.2.17 (192.168.2.17)" size="4" pos="30" show="192.168.2.17" value="c0a80211"/>
    <field name="ip.addr" showname="Source or Destination Address: 192.168.2.17 (192.168.2.17)" hide="yes" size="4" pos="30" show="192.168.2.17" value="c0a80211"/>
    <field name="ip.dst_host" showname="Destination Host: 192.168.2.17" hide="yes" size="4" pos="30" show="192.168.2.17" value="c0a80211"/>
    <field name="ip.host" showname="Source or Destination Host: 192.168.2.17" hide="yes" size="4" pos="30" show="192.168.2.17" value="c0a80211"/>
    <field name="" show="Source GeoIP: Unknown" size="4" pos="26" value="c0a802fc"/>
    <field name="" show="Destination GeoIP: Unknown" size="4" pos="30" value="c0a80211"/>
  </proto>
  <proto name="udp" showname="User Datagram Protocol, Src Port: 864 (864), Dst Port: omirr (808)" size="8" pos="34">
    <field name="udp.srcport" showname="Source port: 864 (864)" size="2" pos="34" show="864" value="0360"/>
    <field name="udp.dstport" showname="Destination port: omirr (808)" size="2" pos="36" show="808" value="0328"/>
    <field name="udp.port" showname="Source or Destination Port: 864" hide="yes" size="2" pos="34" show="864" value="0360"/>
    <field name="udp.port" showname="Source or Destination Port: 808" hide="yes" size="2" pos="36" show="808" value="0328"/>
    <field name="udp.length" showname="Length: 96" size="2" pos="38" show="96" value="0060"/>
    <field name="udp.checksum_coverage" showname="Checksum coverage: 96" hide="yes" size="0" pos="38" show="96"/>
    <field name="udp.checksum" showname="Checksum: 0x09dd [validation disabled]" size="2" pos="40" show="0x09dd" value="09dd">
      <field name="udp.checksum_good" showname="Good Checksum: False" size="2" pos="40" show="0" value="09dd"/>
      <field name="udp.checksum_bad" showname="Bad Checksum: False" size="2" pos="40" show="0" value="09dd"/>
    </field>
  </proto>
  <proto name="rpc" showname="Remote Procedure Call, Type:Call XID:0x25bf3a15" size="40" pos="42">
    <field name="rpc.xid" showname="XID: 0x25bf3a15 (633289237)" size="4" pos="42" show="0x25bf3a15" value="25bf3a15"/>
    <field name="rpc.msgtyp" showname="Message Type: Call (0)" size="4" pos="46" show="0" value="00000000"/>
    <field name="rpc.version" showname="RPC Version: 2" size="4" pos="50" show="2" value="00000002"/>
    <field name="rpc.program" showname="Program: YPSERV (100004)" size="4" pos="54" show="100004" value="000186a4"/>
    <field name="rpc.programversion" showname="Program Version: 2" size="4" pos="58" show="2" value="00000002"/>
    <field name="rpc.procedure" showname="Procedure: MATCH (3)" size="4" pos="62" show="3" value="00000003"/>
    <field name="rpc.reqframe" showname="The reply to this request is in frame 8" size="0" pos="42" show="8"/>
    <field name="" show="Credentials" size="8" pos="66" value="0000000000000000">
      <field name="rpc.auth.flavor" showname="Flavor: AUTH_NULL (0)" size="4" pos="66" show="0" value="00000000"/>
      <field name="rpc.auth.length" showname="Length: 0" size="4" pos="70" show="0" value="00000000"/>
    </field>
    <field name="" show="Verifier" size="8" pos="74" value="0000000000000000">
      <field name="rpc.auth.flavor" showname="Flavor: AUTH_NULL (0)" size="4" pos="74" show="0" value="00000000"/>
      <field name="rpc.auth.length" showname="Length: 0" size="4" pos="78" show="0" value="00000000"/>
    </field>
  </proto>
  <proto name="ypserv" showname="Yellow Pages Service MATCH call EXAMPLE.COM/passwd.byname/user1" size="48" pos="82">
    <field name="rpc.programversion" showname="Program Version: 2" size="0" pos="124" show="2"/>
    <field name="ypserv.procedure_v2" showname="V2 Procedure: MATCH (3)" size="0" pos="124" show="3"/>
    <field name="" show="Domain: EXAMPLE.COM" size="16" pos="82" value="0000000b4558414d504c452e434f4d00">
      <field name="" show="length: 11" size="4" pos="82" value="0000000b"/>
      <field name="ypserv.domain" showname="contents: EXAMPLE.COM" size="11" pos="86" show="EXAMPLE.COM" value="4558414d504c452e434f4d"/>
      <field name="" show="fill bytes: opaque data" size="1" pos="97" value="00"/>
    </field>
    <field name="" show="Map Name: passwd.byname" size="20" pos="98" value="0000000d7061737377642e62796e616d65000000">
      <field name="" show="length: 13" size="4" pos="98" value="0000000d"/>
      <field name="ypserv.map" showname="contents: passwd.byname" size="13" pos="102" show="passwd.byname" value="7061737377642e62796e616d65"/>
      <field name="" show="fill bytes: opaque data" size="3" pos="115" value="000000"/>
    </field>
    <field name="" show="Key: user1" size="12" pos="118" value="000000057573657231000000">
      <field name="" show="length: 5" size="4" pos="118" value="00000005"/>
      <field name="ypserv.key" showname="contents: user1" size="5" pos="122" show="user1" value="7573657231"/>
      <field name="" show="fill bytes: opaque data" size="3" pos="127" value="000000"/>
    </field>
  </proto>
</packet>


<packet>
  <proto name="geninfo" pos="0" showname="General information" size="114">
    <field name="num" pos="0" show="8" showname="Number" value="8" size="114"/>
    <field name="len" pos="0" show="114" showname="Frame Length" value="72" size="114"/>
    <field name="caplen" pos="0" show="114" showname="Captured Length" value="72" size="114"/>
    <field name="timestamp" pos="0" show="Nov 21, 2012 22:07:51.325128000 CET" showname="Captured Time" value="1353532071.325128000" size="114"/>
  </proto>
  <proto name="frame" showname="Frame 8: 114 bytes on wire (912 bits), 114 bytes captured (912 bits)" size="114" pos="0">
    <field name="frame.encap_type" showname="Encapsulation type: Ethernet (1)" size="0" pos="0" show="1"/>
    <field name="frame.time" showname="Arrival Time: Nov 21, 2012 22:07:51.325128000 CET" size="0" pos="0" show="Nov 21, 2012 22:07:51.325128000"/>
    <field name="frame.offset_shift" showname="Time shift for this packet: 0.000000000 seconds" size="0" pos="0" show="0.000000000"/>
    <field name="frame.time_epoch" showname="Epoch Time: 1353532071.325128000 seconds" size="0" pos="0" show="1353532071.325128000"/>
    <field name="frame.time_delta" showname="Time delta from previous captured frame: 0.000530000 seconds" size="0" pos="0" show="0.000530000"/>
    <field name="frame.time_delta_displayed" showname="Time delta from previous displayed frame: 0.000530000 seconds" size="0" pos="0" show="0.000530000"/>
    <field name="frame.time_relative" showname="Time since reference or first frame: 1.833899000 seconds" size="0" pos="0" show="1.833899000"/>
    <field name="frame.number" showname="Frame Number: 8" size="0" pos="0" show="8"/>
    <field name="frame.len" showname="Frame Length: 114 bytes (912 bits)" size="0" pos="0" show="114"/>
    <field name="frame.cap_len" showname="Capture Length: 114 bytes (912 bits)" size="0" pos="0" show="114"/>
    <field name="frame.marked" showname="Frame is marked: False" size="0" pos="0" show="0"/>
    <field name="frame.ignored" showname="Frame is ignored: False" size="0" pos="0" show="0"/>
    <field name="frame.protocols" showname="Protocols in frame: eth:ip:udp:rpc" size="0" pos="0" show="eth:ip:udp:rpc"/>
  </proto>
  <proto name="eth" showname="Ethernet II, Src: CadmusCo_4d:1e:78 (08:00:27:4d:1e:78), Dst: Giga-Byt_7e:5d:d5 (00:24:1d:7e:5d:d5)" size="14" pos="0">
    <field name="eth.dst" showname="Destination: Giga-Byt_7e:5d:d5 (00:24:1d:7e:5d:d5)" size="6" pos="0" show="00:24:1d:7e:5d:d5" value="00241d7e5dd5">
      <field name="eth.addr" showname="Address: Giga-Byt_7e:5d:d5 (00:24:1d:7e:5d:d5)" size="6" pos="0" show="00:24:1d:7e:5d:d5" value="00241d7e5dd5"/>
      <field name="eth.lg" showname=".... ..0. .... .... .... .... = LG bit: Globally unique address (factory default)" size="3" pos="0" show="0" value="0" unmaskedvalue="00241d"/>
      <field name="eth.ig" showname=".... ...0 .... .... .... .... = IG bit: Individual address (unicast)" size="3" pos="0" show="0" value="0" unmaskedvalue="00241d"/>
    </field>
    <field name="eth.src" showname="Source: CadmusCo_4d:1e:78 (08:00:27:4d:1e:78)" size="6" pos="6" show="08:00:27:4d:1e:78" value="0800274d1e78">
      <field name="eth.addr" showname="Address: CadmusCo_4d:1e:78 (08:00:27:4d:1e:78)" size="6" pos="6" show="08:00:27:4d:1e:78" value="0800274d1e78"/>
      <field name="eth.lg" showname=".... ..0. .... .... .... .... = LG bit: Globally unique address (factory default)" size="3" pos="6" show="0" value="0" unmaskedvalue="080027"/>
      <field name="eth.ig" showname=".... ...0 .... .... .... .... = IG bit: Individual address (unicast)" size="3" pos="6" show="0" value="0" unmaskedvalue="080027"/>
    </field>
    <field name="eth.type" showname="Type: IP (0x0800)" size="2" pos="12" show="0x0800" value="0800"/>
  </proto>
  <proto name="ip" showname="Internet Protocol Version 4, Src: 192.168.2.17 (192.168.2.17), Dst: 192.168.2.252 (192.168.2.252)" size="20" pos="14">
    <field name="ip.version" showname="Version: 4" size="1" pos="14" show="4" value="45"/>
    <field name="ip.hdr_len" showname="Header length: 20 bytes" size="1" pos="14" show="20" value="45"/>
    <field name="ip.dsfield" showname="Differentiated Services Field: 0x00 (DSCP 0x00: Default; ECN: 0x00: Not-ECT (Not ECN-Capable Transport))" size="1" pos="15" show="0" value="00">
      <field name="ip.dsfield.dscp" showname="0000 00.. = Differentiated Services Codepoint: Default (0x00)" size="1" pos="15" show="0x00" value="0" unmaskedvalue="00"/>
      <field name="ip.dsfield.ecn" showname=".... ..00 = Explicit Congestion Notification: Not-ECT (Not ECN-Capable Transport) (0x00)" size="1" pos="15" show="0x00" value="0" unmaskedvalue="00"/>
    </field>
    <field name="ip.len" showname="Total Length: 100" size="2" pos="16" show="100" value="0064"/>
    <field name="ip.id" showname="Identification: 0x0000 (0)" size="2" pos="18" show="0x0000" value="0000"/>
    <field name="ip.flags" showname="Flags: 0x02 (Don&apos;t Fragment)" size="1" pos="20" show="0x02" value="40">
      <field name="ip.flags.rb" showname="0... .... = Reserved bit: Not set" size="1" pos="20" show="0" value="40"/>
      <field name="ip.flags.df" showname=".1.. .... = Don&apos;t fragment: Set" size="1" pos="20" show="1" value="40"/>
      <field name="ip.flags.mf" showname="..0. .... = More fragments: Not set" size="1" pos="20" show="0" value="40"/>
    </field>
    <field name="ip.frag_offset" showname="Fragment offset: 0" size="2" pos="20" show="0" value="4000"/>
    <field name="ip.ttl" showname="Time to live: 64" size="1" pos="22" show="64" value="40"/>
    <field name="ip.proto" showname="Protocol: UDP (17)" size="1" pos="23" show="17" value="11"/>
    <field name="ip.checksum" showname="Header checksum: 0xb42b [validation disabled]" size="2" pos="24" show="0xb42b" value="b42b">
      <field name="ip.checksum_good" showname="Good: False" size="2" pos="24" show="0" value="b42b"/>
      <field name="ip.checksum_bad" showname="Bad: False" size="2" pos="24" show="0" value="b42b"/>
    </field>
    <field name="ip.src" showname="Source: 192.168.2.17 (192.168.2.17)" size="4" pos="26" show="192.168.2.17" value="c0a80211"/>
    <field name="ip.addr" showname="Source or Destination Address: 192.168.2.17 (192.168.2.17)" hide="yes" size="4" pos="26" show="192.168.2.17" value="c0a80211"/>
    <field name="ip.src_host" showname="Source Host: 192.168.2.17" hide="yes" size="4" pos="26" show="192.168.2.17" value="c0a80211"/>
    <field name="ip.host" showname="Source or Destination Host: 192.168.2.17" hide="yes" size="4" pos="26" show="192.168.2.17" value="c0a80211"/>
    <field name="ip.dst" showname="Destination: 192.168.2.252 (192.168.2.252)" size="4" pos="30" show="192.168.2.252" value="c0a802fc"/>
    <field name="ip.addr" showname="Source or Destination Address: 192.168.2.252 (192.168.2.252)" hide="yes" size="4" pos="30" show="192.168.2.252" value="c0a802fc"/>
    <field name="ip.dst_host" showname="Destination Host: 192.168.2.252" hide="yes" size="4" pos="30" show="192.168.2.252" value="c0a802fc"/>
    <field name="ip.host" showname="Source or Destination Host: 192.168.2.252" hide="yes" size="4" pos="30" show="192.168.2.252" value="c0a802fc"/>
    <field name="" show="Source GeoIP: Unknown" size="4" pos="26" value="c0a80211"/>
    <field name="" show="Destination GeoIP: Unknown" size="4" pos="30" value="c0a802fc"/>
  </proto>
  <proto name="udp" showname="User Datagram Protocol, Src Port: omirr (808), Dst Port: 864 (864)" size="8" pos="34">
    <field name="udp.srcport" showname="Source port: omirr (808)" size="2" pos="34" show="808" value="0328"/>
    <field name="udp.dstport" showname="Destination port: 864 (864)" size="2" pos="36" show="864" value="0360"/>
    <field name="udp.port" showname="Source or Destination Port: 808" hide="yes" size="2" pos="34" show="808" value="0328"/>
    <field name="udp.port" showname="Source or Destination Port: 864" hide="yes" size="2" pos="36" show="864" value="0360"/>
    <field name="udp.length" showname="Length: 80" size="2" pos="38" show="80" value="0050"/>
    <field name="udp.checksum_coverage" showname="Checksum coverage: 80" hide="yes" size="0" pos="38" show="80"/>
    <field name="udp.checksum" showname="Checksum: 0x86bf [validation disabled]" size="2" pos="40" show="0x86bf" value="86bf">
      <field name="udp.checksum_good" showname="Good Checksum: False" size="2" pos="40" show="0" value="86bf"/>
      <field name="udp.checksum_bad" showname="Bad Checksum: False" size="2" pos="40" show="0" value="86bf"/>
    </field>
  </proto>
  <proto name="rpc" showname="Remote Procedure Call, Type:Reply XID:0x25bf3a15" size="24" pos="42">
    <field name="rpc.xid" showname="XID: 0x25bf3a15 (633289237)" size="4" pos="42" show="0x25bf3a15" value="25bf3a15"/>
    <field name="rpc.msgtyp" showname="Message Type: Reply (1)" size="4" pos="46" show="1" value="00000001"/>
    <field name="rpc.program" showname="Program: YPSERV (100004)" size="0" pos="42" show="100004"/>
    <field name="rpc.programversion" showname="Program Version: 2" size="0" pos="42" show="2"/>
    <field name="rpc.procedure" showname="Procedure: MATCH (3)" size="0" pos="42" show="3"/>
    <field name="rpc.replystat" showname="Reply State: accepted (0)" size="4" pos="50" show="0" value="00000000"/>
    <field name="rpc.repframe" showname="This is a reply to a request in frame 7" size="0" pos="42" show="7"/>
    <field name="rpc.time" showname="Time from request: 0.000530000 seconds" size="0" pos="54" show="0.000530000"/>
    <field name="" show="Verifier" size="8" pos="54" value="0000000000000000">
      <field name="rpc.auth.flavor" showname="Flavor: AUTH_NULL (0)" size="4" pos="54" show="0" value="00000000"/>
      <field name="rpc.auth.length" showname="Length: 0" size="4" pos="58" show="0" value="00000000"/>
    </field>
    <field name="rpc.state_accept" showname="Accept State: RPC executed successfully (0)" size="4" pos="62" show="0" value="00000000"/>
  </proto>
  <proto name="ypserv" showname="Yellow Pages Service MATCH reply user1:!!:501:501::/home/user1:/bin/bash" size="48" pos="66">
    <field name="rpc.programversion" showname="Program Version: 2" size="0" pos="108" show="2"/>
    <field name="ypserv.procedure_v2" showname="V2 Procedure: MATCH (3)" size="0" pos="108" show="3"/>
    <field name="ypserv.status" showname="Status: YP_TRUE (1)" size="4" pos="66" show="1" value="00000001"/>
    <field name="" show="Value: user1:!!:501:501::/home/user1:/bin/bash" size="44" pos="70" value="0000002775736572313a21213a3530313a3530313a3a2f686f6d652f75736572313a2f62696e2f6261736800">
      <field name="" show="length: 39" size="4" pos="70" value="00000027"/>
      <field name="ypserv.value" showname="contents: user1:!!:501:501::/home/user1:/bin/bash" size="39" pos="74" show="user1:!!:501:501::/home/user1:/bin/bash" value="75736572313a21213a3530313a3530313a3a2f686f6d652f75736572313a2f62696e2f62617368"/>
      <field name="" show="fill bytes: opaque data" size="1" pos="113" value="00"/>
    </field>
  </proto>
</packet>


<packet>
  <proto name="geninfo" pos="0" showname="General information" size="130">
    <field name="num" pos="0" show="9" showname="Number" value="9" size="130"/>
    <field name="len" pos="0" show="130" showname="Frame Length" value="82" size="130"/>
    <field name="caplen" pos="0" show="130" showname="Captured Length" value="82" size="130"/>
    <field name="timestamp" pos="0" show="Nov 21, 2012 22:07:51.337173000 CET" showname="Captured Time" value="1353532071.337173000" size="130"/>
  </proto>
  <proto name="frame" showname="Frame 9: 130 bytes on wire (1040 bits), 130 bytes captured (1040 bits)" size="130" pos="0">
    <field name="frame.encap_type" showname="Encapsulation type: Ethernet (1)" size="0" pos="0" show="1"/>
    <field name="frame.time" showname="Arrival Time: Nov 21, 2012 22:07:51.337173000 CET" size="0" pos="0" show="Nov 21, 2012 22:07:51.337173000"/>
    <field name="frame.offset_shift" showname="Time shift for this packet: 0.000000000 seconds" size="0" pos="0" show="0.000000000"/>
    <field name="frame.time_epoch" showname="Epoch Time: 1353532071.337173000 seconds" size="0" pos="0" show="1353532071.337173000"/>
    <field name="frame.time_delta" showname="Time delta from previous captured frame: 0.012045000 seconds" size="0" pos="0" show="0.012045000"/>
    <field name="frame.time_delta_displayed" showname="Time delta from previous displayed frame: 0.012045000 seconds" size="0" pos="0" show="0.012045000"/>
    <field name="frame.time_relative" showname="Time since reference or first frame: 1.845944000 seconds" size="0" pos="0" show="1.845944000"/>
    <field name="frame.number" showname="Frame Number: 9" size="0" pos="0" show="9"/>
    <field name="frame.len" showname="Frame Length: 130 bytes (1040 bits)" size="0" pos="0" show="130"/>
    <field name="frame.cap_len" showname="Capture Length: 130 bytes (1040 bits)" size="0" pos="0" show="130"/>
    <field name="frame.marked" showname="Frame is marked: False" size="0" pos="0" show="0"/>
    <field name="frame.ignored" showname="Frame is ignored: False" size="0" pos="0" show="0"/>
    <field name="frame.protocols" showname="Protocols in frame: eth:ip:udp:rpc" size="0" pos="0" show="eth:ip:udp:rpc"/>
  </proto>
  <proto name="eth" showname="Ethernet II, Src: Giga-Byt_7e:5d:d5 (00:24:1d:7e:5d:d5), Dst: CadmusCo_4d:1e:78 (08:00:27:4d:1e:78)" size="14" pos="0">
    <field name="eth.dst" showname="Destination: CadmusCo_4d:1e:78 (08:00:27:4d:1e:78)" size="6" pos="0" show="08:00:27:4d:1e:78" value="0800274d1e78">
      <field name="eth.addr" showname="Address: CadmusCo_4d:1e:78 (08:00:27:4d:1e:78)" size="6" pos="0" show="08:00:27:4d:1e:78" value="0800274d1e78"/>
      <field name="eth.lg" showname=".... ..0. .... .... .... .... = LG bit: Globally unique address (factory default)" size="3" pos="0" show="0" value="0" unmaskedvalue="080027"/>
      <field name="eth.ig" showname=".... ...0 .... .... .... .... = IG bit: Individual address (unicast)" size="3" pos="0" show="0" value="0" unmaskedvalue="080027"/>
    </field>
    <field name="eth.src" showname="Source: Giga-Byt_7e:5d:d5 (00:24:1d:7e:5d:d5)" size="6" pos="6" show="00:24:1d:7e:5d:d5" value="00241d7e5dd5">
      <field name="eth.addr" showname="Address: Giga-Byt_7e:5d:d5 (00:24:1d:7e:5d:d5)" size="6" pos="6" show="00:24:1d:7e:5d:d5" value="00241d7e5dd5"/>
      <field name="eth.lg" showname=".... ..0. .... .... .... .... = LG bit: Globally unique address (factory default)" size="3" pos="6" show="0" value="0" unmaskedvalue="00241d"/>
      <field name="eth.ig" showname=".... ...0 .... .... .... .... = IG bit: Individual address (unicast)" size="3" pos="6" show="0" value="0" unmaskedvalue="00241d"/>
    </field>
    <field name="eth.type" showname="Type: IP (0x0800)" size="2" pos="12" show="0x0800" value="0800"/>
  </proto>
  <proto name="ip" showname="Internet Protocol Version 4, Src: 192.168.2.252 (192.168.2.252), Dst: 192.168.2.17 (192.168.2.17)" size="20" pos="14">
    <field name="ip.version" showname="Version: 4" size="1" pos="14" show="4" value="45"/>
    <field name="ip.hdr_len" showname="Header length: 20 bytes" size="1" pos="14" show="20" value="45"/>
    <field name="ip.dsfield" showname="Differentiated Services Field: 0x00 (DSCP 0x00: Default; ECN: 0x00: Not-ECT (Not ECN-Capable Transport))" size="1" pos="15" show="0" value="00">
      <field name="ip.dsfield.dscp" showname="0000 00.. = Differentiated Services Codepoint: Default (0x00)" size="1" pos="15" show="0x00" value="0" unmaskedvalue="00"/>
      <field name="ip.dsfield.ecn" showname=".... ..00 = Explicit Congestion Notification: Not-ECT (Not ECN-Capable Transport) (0x00)" size="1" pos="15" show="0x00" value="0" unmaskedvalue="00"/>
    </field>
    <field name="ip.len" showname="Total Length: 116" size="2" pos="16" show="116" value="0074"/>
    <field name="ip.id" showname="Identification: 0x0000 (0)" size="2" pos="18" show="0x0000" value="0000"/>
    <field name="ip.flags" showname="Flags: 0x02 (Don&apos;t Fragment)" size="1" pos="20" show="0x02" value="40">
      <field name="ip.flags.rb" showname="0... .... = Reserved bit: Not set" size="1" pos="20" show="0" value="40"/>
      <field name="ip.flags.df" showname=".1.. .... = Don&apos;t fragment: Set" size="1" pos="20" show="1" value="40"/>
      <field name="ip.flags.mf" showname="..0. .... = More fragments: Not set" size="1" pos="20" show="0" value="40"/>
    </field>
    <field name="ip.frag_offset" showname="Fragment offset: 0" size="2" pos="20" show="0" value="4000"/>
    <field name="ip.ttl" showname="Time to live: 64" size="1" pos="22" show="64" value="40"/>
    <field name="ip.proto" showname="Protocol: UDP (17)" size="1" pos="23" show="17" value="11"/>
    <field name="ip.checksum" showname="Header checksum: 0xb41b [validation disabled]" size="2" pos="24" show="0xb41b" value="b41b">
      <field name="ip.checksum_good" showname="Good: False" size="2" pos="24" show="0" value="b41b"/>
      <field name="ip.checksum_bad" showname="Bad: False" size="2" pos="24" show="0" value="b41b"/>
    </field>
    <field name="ip.src" showname="Source: 192.168.2.252 (192.168.2.252)" size="4" pos="26" show="192.168.2.252" value="c0a802fc"/>
    <field name="ip.addr" showname="Source or Destination Address: 192.168.2.252 (192.168.2.252)" hide="yes" size="4" pos="26" show="192.168.2.252" value="c0a802fc"/>
    <field name="ip.src_host" showname="Source Host: 192.168.2.252" hide="yes" size="4" pos="26" show="192.168.2.252" value="c0a802fc"/>
    <field name="ip.host" showname="Source or Destination Host: 192.168.2.252" hide="yes" size="4" pos="26" show="192.168.2.252" value="c0a802fc"/>
    <field name="ip.dst" showname="Destination: 192.168.2.17 (192.168.2.17)" size="4" pos="30" show="192.168.2.17" value="c0a80211"/>
    <field name="ip.addr" showname="Source or Destination Address: 192.168.2.17 (192.168.2.17)" hide="yes" size="4" pos="30" show="192.168.2.17" value="c0a80211"/>
    <field name="ip.dst_host" showname="Destination Host: 192.168.2.17" hide="yes" size="4" pos="30" show="192.168.2.17" value="c0a80211"/>
    <field name="ip.host" showname="Source or Destination Host: 192.168.2.17" hide="yes" size="4" pos="30" show="192.168.2.17" value="c0a80211"/>
    <field name="" show="Source GeoIP: Unknown" size="4" pos="26" value="c0a802fc"/>
    <field name="" show="Destination GeoIP: Unknown" size="4" pos="30" value="c0a80211"/>
  </proto>
  <proto name="udp" showname="User Datagram Protocol, Src Port: 865 (865), Dst Port: omirr (808)" size="8" pos="34">
    <field name="udp.srcport" showname="Source port: 865 (865)" size="2" pos="34" show="865" value="0361"/>
    <field name="udp.dstport" showname="Destination port: omirr (808)" size="2" pos="36" show="808" value="0328"/>
    <field name="udp.port" showname="Source or Destination Port: 865" hide="yes" size="2" pos="34" show="865" value="0361"/>
    <field name="udp.port" showname="Source or Destination Port: 808" hide="yes" size="2" pos="36" show="808" value="0328"/>
    <field name="udp.length" showname="Length: 96" size="2" pos="38" show="96" value="0060"/>
    <field name="udp.checksum_coverage" showname="Checksum coverage: 96" hide="yes" size="0" pos="38" show="96"/>
    <field name="udp.checksum" showname="Checksum: 0x5f96 [validation disabled]" size="2" pos="40" show="0x5f96" value="5f96">
      <field name="udp.checksum_good" showname="Good Checksum: False" size="2" pos="40" show="0" value="5f96"/>
      <field name="udp.checksum_bad" showname="Bad Checksum: False" size="2" pos="40" show="0" value="5f96"/>
    </field>
  </proto>
  <proto name="rpc" showname="Remote Procedure Call, Type:Call XID:0x47dec23b" size="40" pos="42">
    <field name="rpc.xid" showname="XID: 0x47dec23b (1205781051)" size="4" pos="42" show="0x47dec23b" value="47dec23b"/>
    <field name="rpc.msgtyp" showname="Message Type: Call (0)" size="4" pos="46" show="0" value="00000000"/>
    <field name="rpc.version" showname="RPC Version: 2" size="4" pos="50" show="2" value="00000002"/>
    <field name="rpc.program" showname="Program: YPSERV (100004)" size="4" pos="54" show="100004" value="000186a4"/>
    <field name="rpc.programversion" showname="Program Version: 2" size="4" pos="58" show="2" value="00000002"/>
    <field name="rpc.procedure" showname="Procedure: MATCH (3)" size="4" pos="62" show="3" value="00000003"/>
    <field name="rpc.reqframe" showname="The reply to this request is in frame 10" size="0" pos="42" show="10"/>
    <field name="" show="Credentials" size="8" pos="66" value="0000000000000000">
      <field name="rpc.auth.flavor" showname="Flavor: AUTH_NULL (0)" size="4" pos="66" show="0" value="00000000"/>
      <field name="rpc.auth.length" showname="Length: 0" size="4" pos="70" show="0" value="00000000"/>
    </field>
    <field name="" show="Verifier" size="8" pos="74" value="0000000000000000">
      <field name="rpc.auth.flavor" showname="Flavor: AUTH_NULL (0)" size="4" pos="74" show="0" value="00000000"/>
      <field name="rpc.auth.length" showname="Length: 0" size="4" pos="78" show="0" value="00000000"/>
    </field>
  </proto>
  <proto name="ypserv" showname="Yellow Pages Service MATCH call EXAMPLE.COM/passwd.byname/user1" size="48" pos="82">
    <field name="rpc.programversion" showname="Program Version: 2" size="0" pos="124" show="2"/>
    <field name="ypserv.procedure_v2" showname="V2 Procedure: MATCH (3)" size="0" pos="124" show="3"/>
    <field name="" show="Domain: EXAMPLE.COM" size="16" pos="82" value="0000000b4558414d504c452e434f4d00">
      <field name="" show="length: 11" size="4" pos="82" value="0000000b"/>
      <field name="ypserv.domain" showname="contents: EXAMPLE.COM" size="11" pos="86" show="EXAMPLE.COM" value="4558414d504c452e434f4d"/>
      <field name="" show="fill bytes: opaque data" size="1" pos="97" value="00"/>
    </field>
    <field name="" show="Map Name: passwd.byname" size="20" pos="98" value="0000000d7061737377642e62796e616d65000000">
      <field name="" show="length: 13" size="4" pos="98" value="0000000d"/>
      <field name="ypserv.map" showname="contents: passwd.byname" size="13" pos="102" show="passwd.byname" value="7061737377642e62796e616d65"/>
      <field name="" show="fill bytes: opaque data" size="3" pos="115" value="000000"/>
    </field>
    <field name="" show="Key: user1" size="12" pos="118" value="000000057573657231000000">
      <field name="" show="length: 5" size="4" pos="118" value="00000005"/>
      <field name="ypserv.key" showname="contents: user1" size="5" pos="122" show="user1" value="7573657231"/>
      <field name="" show="fill bytes: opaque data" size="3" pos="127" value="000000"/>
    </field>
  </proto>
</packet>


<packet>
  <proto name="geninfo" pos="0" showname="General information" size="114">
    <field name="num" pos="0" show="10" showname="Number" value="a" size="114"/>
    <field name="len" pos="0" show="114" showname="Frame Length" value="72" size="114"/>
    <field name="caplen" pos="0" show="114" showname="Captured Length" value="72" size="114"/>
    <field name="timestamp" pos="0" show="Nov 21, 2012 22:07:51.337270000 CET" showname="Captured Time" value="1353532071.337270000" size="114"/>
  </proto>
  <proto name="frame" showname="Frame 10: 114 bytes on wire (912 bits), 114 bytes captured (912 bits)" size="114" pos="0">
    <field name="frame.encap_type" showname="Encapsulation type: Ethernet (1)" size="0" pos="0" show="1"/>
    <field name="frame.time" showname="Arrival Time: Nov 21, 2012 22:07:51.337270000 CET" size="0" pos="0" show="Nov 21, 2012 22:07:51.337270000"/>
    <field name="frame.offset_shift" showname="Time shift for this packet: 0.000000000 seconds" size="0" pos="0" show="0.000000000"/>
    <field name="frame.time_epoch" showname="Epoch Time: 1353532071.337270000 seconds" size="0" pos="0" show="1353532071.337270000"/>
    <field name="frame.time_delta" showname="Time delta from previous captured frame: 0.000097000 seconds" size="0" pos="0" show="0.000097000"/>
    <field name="frame.time_delta_displayed" showname="Time delta from previous displayed frame: 0.000097000 seconds" size="0" pos="0" show="0.000097000"/>
    <field name="frame.time_relative" showname="Time since reference or first frame: 1.846041000 seconds" size="0" pos="0" show="1.846041000"/>
    <field name="frame.number" showname="Frame Number: 10" size="0" pos="0" show="10"/>
    <field name="frame.len" showname="Frame Length: 114 bytes (912 bits)" size="0" pos="0" show="114"/>
    <field name="frame.cap_len" showname="Capture Length: 114 bytes (912 bits)" size="0" pos="0" show="114"/>
    <field name="frame.marked" showname="Frame is marked: False" size="0" pos="0" show="0"/>
    <field name="frame.ignored" showname="Frame is ignored: False" size="0" pos="0" show="0"/>
    <field name="frame.protocols" showname="Protocols in frame: eth:ip:udp:rpc" size="0" pos="0" show="eth:ip:udp:rpc"/>
  </proto>
  <proto name="eth" showname="Ethernet II, Src: CadmusCo_4d:1e:78 (08:00:27:4d:1e:78), Dst: Giga-Byt_7e:5d:d5 (00:24:1d:7e:5d:d5)" size="14" pos="0">
    <field name="eth.dst" showname="Destination: Giga-Byt_7e:5d:d5 (00:24:1d:7e:5d:d5)" size="6" pos="0" show="00:24:1d:7e:5d:d5" value="00241d7e5dd5">
      <field name="eth.addr" showname="Address: Giga-Byt_7e:5d:d5 (00:24:1d:7e:5d:d5)" size="6" pos="0" show="00:24:1d:7e:5d:d5" value="00241d7e5dd5"/>
      <field name="eth.lg" showname=".... ..0. .... .... .... .... = LG bit: Globally unique address (factory default)" size="3" pos="0" show="0" value="0" unmaskedvalue="00241d"/>
      <field name="eth.ig" showname=".... ...0 .... .... .... .... = IG bit: Individual address (unicast)" size="3" pos="0" show="0" value="0" unmaskedvalue="00241d"/>
    </field>
    <field name="eth.src" showname="Source: CadmusCo_4d:1e:78 (08:00:27:4d:1e:78)" size="6" pos="6" show="08:00:27:4d:1e:78" value="0800274d1e78">
      <field name="eth.addr" showname="Address: CadmusCo_4d:1e:78 (08:00:27:4d:1e:78)" size="6" pos="6" show="08:00:27:4d:1e:78" value="0800274d1e78"/>
      <field name="eth.lg" showname=".... ..0. .... .... .... .... = LG bit: Globally unique address (factory default)" size="3" pos="6" show="0" value="0" unmaskedvalue="080027"/>
      <field name="eth.ig" showname=".... ...0 .... .... .... .... = IG bit: Individual address (unicast)" size="3" pos="6" show="0" value="0" unmaskedvalue="080027"/>
    </field>
    <field name="eth.type" showname="Type: IP (0x0800)" size="2" pos="12" show="0x0800" value="0800"/>
  </proto>
  <proto name="ip" showname="Internet Protocol Version 4, Src: 192.168.2.17 (192.168.2.17), Dst: 192.168.2.252 (192.168.2.252)" size="20" pos="14">
    <field name="ip.version" showname="Version: 4" size="1" pos="14" show="4" value="45"/>
    <field name="ip.hdr_len" showname="Header length: 20 bytes" size="1" pos="14" show="20" value="45"/>
    <field name="ip.dsfield" showname="Differentiated Services Field: 0x00 (DSCP 0x00: Default; ECN: 0x00: Not-ECT (Not ECN-Capable Transport))" size="1" pos="15" show="0" value="00">
      <field name="ip.dsfield.dscp" showname="0000 00.. = Differentiated Services Codepoint: Default (0x00)" size="1" pos="15" show="0x00" value="0" unmaskedvalue="00"/>
      <field name="ip.dsfield.ecn" showname=".... ..00 = Explicit Congestion Notification: Not-ECT (Not ECN-Capable Transport) (0x00)" size="1" pos="15" show="0x00" value="0" unmaskedvalue="00"/>
    </field>
    <field name="ip.len" showname="Total Length: 100" size="2" pos="16" show="100" value="0064"/>
    <field name="ip.id" showname="Identification: 0x0000 (0)" size="2" pos="18" show="0x0000" value="0000"/>
    <field name="ip.flags" showname="Flags: 0x02 (Don&apos;t Fragment)" size="1" pos="20" show="0x02" value="40">
      <field name="ip.flags.rb" showname="0... .... = Reserved bit: Not set" size="1" pos="20" show="0" value="40"/>
      <field name="ip.flags.df" showname=".1.. .... = Don&apos;t fragment: Set" size="1" pos="20" show="1" value="40"/>
      <field name="ip.flags.mf" showname="..0. .... = More fragments: Not set" size="1" pos="20" show="0" value="40"/>
    </field>
    <field name="ip.frag_offset" showname="Fragment offset: 0" size="2" pos="20" show="0" value="4000"/>
    <field name="ip.ttl" showname="Time to live: 64" size="1" pos="22" show="64" value="40"/>
    <field name="ip.proto" showname="Protocol: UDP (17)" size="1" pos="23" show="17" value="11"/>
    <field name="ip.checksum" showname="Header checksum: 0xb42b [validation disabled]" size="2" pos="24" show="0xb42b" value="b42b">
      <field name="ip.checksum_good" showname="Good: False" size="2" pos="24" show="0" value="b42b"/>
      <field name="ip.checksum_bad" showname="Bad: False" size="2" pos="24" show="0" value="b42b"/>
    </field>
    <field name="ip.src" showname="Source: 192.168.2.17 (192.168.2.17)" size="4" pos="26" show="192.168.2.17" value="c0a80211"/>
    <field name="ip.addr" showname="Source or Destination Address: 192.168.2.17 (192.168.2.17)" hide="yes" size="4" pos="26" show="192.168.2.17" value="c0a80211"/>
    <field name="ip.src_host" showname="Source Host: 192.168.2.17" hide="yes" size="4" pos="26" show="192.168.2.17" value="c0a80211"/>
    <field name="ip.host" showname="Source or Destination Host: 192.168.2.17" hide="yes" size="4" pos="26" show="192.168.2.17" value="c0a80211"/>
    <field name="ip.dst" showname="Destination: 192.168.2.252 (192.168.2.252)" size="4" pos="30" show="192.168.2.252" value="c0a802fc"/>
    <field name="ip.addr" showname="Source or Destination Address: 192.168.2.252 (192.168.2.252)" hide="yes" size="4" pos="30" show="192.168.2.252" value="c0a802fc"/>
    <field name="ip.dst_host" showname="Destination Host: 192.168.2.252" hide="yes" size="4" pos="30" show="192.168.2.252" value="c0a802fc"/>
    <field name="ip.host" showname="Source or Destination Host: 192.168.2.252" hide="yes" size="4" pos="30" show="192.168.2.252" value="c0a802fc"/>
    <field name="" show="Source GeoIP: Unknown" size="4" pos="26" value="c0a80211"/>
    <field name="" show="Destination GeoIP: Unknown" size="4" pos="30" value="c0a802fc"/>
  </proto>
  <proto name="udp" showname="User Datagram Protocol, Src Port: omirr (808), Dst Port: 865 (865)" size="8" pos="34">
    <field name="udp.srcport" showname="Source port: omirr (808)" size="2" pos="34" show="808" value="0328"/>
    <field name="udp.dstport" showname="Destination port: 865 (865)" size="2" pos="36" show="865" value="0361"/>
    <field name="udp.port" showname="Source or Destination Port: 808" hide="yes" size="2" pos="34" show="808" value="0328"/>
    <field name="udp.port" showname="Source or Destination Port: 865" hide="yes" size="2" pos="36" show="865" value="0361"/>
    <field name="udp.length" showname="Length: 80" size="2" pos="38" show="80" value="0050"/>
    <field name="udp.checksum_coverage" showname="Checksum coverage: 80" hide="yes" size="0" pos="38" show="80"/>
    <field name="udp.checksum" showname="Checksum: 0x86bf [validation disabled]" size="2" pos="40" show="0x86bf" value="86bf">
      <field name="udp.checksum_good" showname="Good Checksum: False" size="2" pos="40" show="0" value="86bf"/>
      <field name="udp.checksum_bad" showname="Bad Checksum: False" size="2" pos="40" show="0" value="86bf"/>
    </field>
  </proto>
  <proto name="rpc" showname="Remote Procedure Call, Type:Reply XID:0x47dec23b" size="24" pos="42">
    <field name="rpc.xid" showname="XID: 0x47dec23b (1205781051)" size="4" pos="42" show="0x47dec23b" value="47dec23b"/>
    <field name="rpc.msgtyp" showname="Message Type: Reply (1)" size="4" pos="46" show="1" value="00000001"/>
    <field name="rpc.program" showname="Program: YPSERV (100004)" size="0" pos="42" show="100004"/>
    <field name="rpc.programversion" showname="Program Version: 2" size="0" pos="42" show="2"/>
    <field name="rpc.procedure" showname="Procedure: MATCH (3)" size="0" pos="42" show="3"/>
    <field name="rpc.replystat" showname="Reply State: accepted (0)" size="4" pos="50" show="0" value="00000000"/>
    <field name="rpc.repframe" showname="This is a reply to a request in frame 9" size="0" pos="42" show="9"/>
    <field name="rpc.time" showname="Time from request: 0.000097000 seconds" size="0" pos="54" show="0.000097000"/>
    <field name="" show="Verifier" size="8" pos="54" value="0000000000000000">
      <field name="rpc.auth.flavor" showname="Flavor: AUTH_NULL (0)" size="4" pos="54" show="0" value="00000000"/>
      <field name="rpc.auth.length" showname="Length: 0" size="4" pos="58" show="0" value="00000000"/>
    </field>
    <field name="rpc.state_accept" showname="Accept State: RPC executed successfully (0)" size="4" pos="62" show="0" value="00000000"/>
  </proto>
  <proto name="ypserv" showname="Yellow Pages Service MATCH reply user1:!!:501:501::/home/user1:/bin/bash" size="48" pos="66">
    <field name="rpc.programversion" showname="Program Version: 2" size="0" pos="108" show="2"/>
    <field name="ypserv.procedure_v2" showname="V2 Procedure: MATCH (3)" size="0" pos="108" show="3"/>
    <field name="ypserv.status" showname="Status: YP_TRUE (1)" size="4" pos="66" show="1" value="00000001"/>
    <field name="" show="Value: user1:!!:501:501::/home/user1:/bin/bash" size="44" pos="70" value="0000002775736572313a21213a3530313a3530313a3a2f686f6d652f75736572313a2f62696e2f6261736800">
      <field name="" show="length: 39" size="4" pos="70" value="00000027"/>
      <field name="ypserv.value" showname="contents: user1:!!:501:501::/home/user1:/bin/bash" size="39" pos="74" show="user1:!!:501:501::/home/user1:/bin/bash" value="75736572313a21213a3530313a3530313a3a2f686f6d652f75736572313a2f62696e2f62617368"/>
      <field name="" show="fill bytes: opaque data" size="1" pos="113" value="00"/>
    </field>
  </proto>
</packet>


<packet>
  <proto name="geninfo" pos="0" showname="General information" size="239">
    <field name="num" pos="0" show="11" showname="Number" value="b" size="239"/>
    <field name="len" pos="0" show="239" showname="Frame Length" value="ef" size="239"/>
    <field name="caplen" pos="0" show="239" showname="Captured Length" value="ef" size="239"/>
    <field name="timestamp" pos="0" show="Nov 21, 2012 22:07:51.338899000 CET" showname="Captured Time" value="1353532071.338899000" size="239"/>
  </proto>
  <proto name="frame" showname="Frame 11: 239 bytes on wire (1912 bits), 239 bytes captured (1912 bits)" size="239" pos="0">
    <field name="frame.encap_type" showname="Encapsulation type: Ethernet (1)" size="0" pos="0" show="1"/>
    <field name="frame.time" showname="Arrival Time: Nov 21, 2012 22:07:51.338899000 CET" size="0" pos="0" show="Nov 21, 2012 22:07:51.338899000"/>
    <field name="frame.offset_shift" showname="Time shift for this packet: 0.000000000 seconds" size="0" pos="0" show="0.000000000"/>
    <field name="frame.time_epoch" showname="Epoch Time: 1353532071.338899000 seconds" size="0" pos="0" show="1353532071.338899000"/>
    <field name="frame.time_delta" showname="Time delta from previous captured frame: 0.001629000 seconds" size="0" pos="0" show="0.001629000"/>
    <field name="frame.time_delta_displayed" showname="Time delta from previous displayed frame: 0.001629000 seconds" size="0" pos="0" show="0.001629000"/>
    <field name="frame.time_relative" showname="Time since reference or first frame: 1.847670000 seconds" size="0" pos="0" show="1.847670000"/>
    <field name="frame.number" showname="Frame Number: 11" size="0" pos="0" show="11"/>
    <field name="frame.len" showname="Frame Length: 239 bytes (1912 bits)" size="0" pos="0" show="239"/>
    <field name="frame.cap_len" showname="Capture Length: 239 bytes (1912 bits)" size="0" pos="0" show="239"/>
    <field name="frame.marked" showname="Frame is marked: False" size="0" pos="0" show="0"/>
    <field name="frame.ignored" showname="Frame is ignored: False" size="0" pos="0" show="0"/>
    <field name="frame.protocols" showname="Protocols in frame: eth:ip:udp:kerberos" size="0" pos="0" show="eth:ip:udp:kerberos"/>
  </proto>
  <proto name="eth" showname="Ethernet II, Src: Giga-Byt_7e:5d:d5 (00:24:1d:7e:5d:d5), Dst: CadmusCo_4d:1e:78 (08:00:27:4d:1e:78)" size="14" pos="0">
    <field name="eth.dst" showname="Destination: CadmusCo_4d:1e:78 (08:00:27:4d:1e:78)" size="6" pos="0" show="08:00:27:4d:1e:78" value="0800274d1e78">
      <field name="eth.addr" showname="Address: CadmusCo_4d:1e:78 (08:00:27:4d:1e:78)" size="6" pos="0" show="08:00:27:4d:1e:78" value="0800274d1e78"/>
      <field name="eth.lg" showname=".... ..0. .... .... .... .... = LG bit: Globally unique address (factory default)" size="3" pos="0" show="0" value="0" unmaskedvalue="080027"/>
      <field name="eth.ig" showname=".... ...0 .... .... .... .... = IG bit: Individual address (unicast)" size="3" pos="0" show="0" value="0" unmaskedvalue="080027"/>
    </field>
    <field name="eth.src" showname="Source: Giga-Byt_7e:5d:d5 (00:24:1d:7e:5d:d5)" size="6" pos="6" show="00:24:1d:7e:5d:d5" value="00241d7e5dd5">
      <field name="eth.addr" showname="Address: Giga-Byt_7e:5d:d5 (00:24:1d:7e:5d:d5)" size="6" pos="6" show="00:24:1d:7e:5d:d5" value="00241d7e5dd5"/>
      <field name="eth.lg" showname=".... ..0. .... .... .... .... = LG bit: Globally unique address (factory default)" size="3" pos="6" show="0" value="0" unmaskedvalue="00241d"/>
      <field name="eth.ig" showname=".... ...0 .... .... .... .... = IG bit: Individual address (unicast)" size="3" pos="6" show="0" value="0" unmaskedvalue="00241d"/>
    </field>
    <field name="eth.type" showname="Type: IP (0x0800)" size="2" pos="12" show="0x0800" value="0800"/>
  </proto>
  <proto name="ip" showname="Internet Protocol Version 4, Src: 192.168.2.252 (192.168.2.252), Dst: 192.168.2.17 (192.168.2.17)" size="20" pos="14">
    <field name="ip.version" showname="Version: 4" size="1" pos="14" show="4" value="45"/>
    <field name="ip.hdr_len" showname="Header length: 20 bytes" size="1" pos="14" show="20" value="45"/>
    <field name="ip.dsfield" showname="Differentiated Services Field: 0x00 (DSCP 0x00: Default; ECN: 0x00: Not-ECT (Not ECN-Capable Transport))" size="1" pos="15" show="0" value="00">
      <field name="ip.dsfield.dscp" showname="0000 00.. = Differentiated Services Codepoint: Default (0x00)" size="1" pos="15" show="0x00" value="0" unmaskedvalue="00"/>
      <field name="ip.dsfield.ecn" showname=".... ..00 = Explicit Congestion Notification: Not-ECT (Not ECN-Capable Transport) (0x00)" size="1" pos="15" show="0x00" value="0" unmaskedvalue="00"/>
    </field>
    <field name="ip.len" showname="Total Length: 225" size="2" pos="16" show="225" value="00e1"/>
    <field name="ip.id" showname="Identification: 0x6df8 (28152)" size="2" pos="18" show="0x6df8" value="6df8"/>
    <field name="ip.flags" showname="Flags: 0x02 (Don&apos;t Fragment)" size="1" pos="20" show="0x02" value="40">
      <field name="ip.flags.rb" showname="0... .... = Reserved bit: Not set" size="1" pos="20" show="0" value="40"/>
      <field name="ip.flags.df" showname=".1.. .... = Don&apos;t fragment: Set" size="1" pos="20" show="1" value="40"/>
      <field name="ip.flags.mf" showname="..0. .... = More fragments: Not set" size="1" pos="20" show="0" value="40"/>
    </field>
    <field name="ip.frag_offset" showname="Fragment offset: 0" size="2" pos="20" show="0" value="4000"/>
    <field name="ip.ttl" showname="Time to live: 64" size="1" pos="22" show="64" value="40"/>
    <field name="ip.proto" showname="Protocol: UDP (17)" size="1" pos="23" show="17" value="11"/>
    <field name="ip.checksum" showname="Header checksum: 0x45b6 [validation disabled]" size="2" pos="24" show="0x45b6" value="45b6">
      <field name="ip.checksum_good" showname="Good: False" size="2" pos="24" show="0" value="45b6"/>
      <field name="ip.checksum_bad" showname="Bad: False" size="2" pos="24" show="0" value="45b6"/>
    </field>
    <field name="ip.src" showname="Source: 192.168.2.252 (192.168.2.252)" size="4" pos="26" show="192.168.2.252" value="c0a802fc"/>
    <field name="ip.addr" showname="Source or Destination Address: 192.168.2.252 (192.168.2.252)" hide="yes" size="4" pos="26" show="192.168.2.252" value="c0a802fc"/>
    <field name="ip.src_host" showname="Source Host: 192.168.2.252" hide="yes" size="4" pos="26" show="192.168.2.252" value="c0a802fc"/>
    <field name="ip.host" showname="Source or Destination Host: 192.168.2.252" hide="yes" size="4" pos="26" show="192.168.2.252" value="c0a802fc"/>
    <field name="ip.dst" showname="Destination: 192.168.2.17 (192.168.2.17)" size="4" pos="30" show="192.168.2.17" value="c0a80211"/>
    <field name="ip.addr" showname="Source or Destination Address: 192.168.2.17 (192.168.2.17)" hide="yes" size="4" pos="30" show="192.168.2.17" value="c0a80211"/>
    <field name="ip.dst_host" showname="Destination Host: 192.168.2.17" hide="yes" size="4" pos="30" show="192.168.2.17" value="c0a80211"/>
    <field name="ip.host" showname="Source or Destination Host: 192.168.2.17" hide="yes" size="4" pos="30" show="192.168.2.17" value="c0a80211"/>
    <field name="" show="Source GeoIP: Unknown" size="4" pos="26" value="c0a802fc"/>
    <field name="" show="Destination GeoIP: Unknown" size="4" pos="30" value="c0a80211"/>
  </proto>
  <proto name="udp" showname="User Datagram Protocol, Src Port: 37261 (37261), Dst Port: kerberos (88)" size="8" pos="34">
    <field name="udp.srcport" showname="Source port: 37261 (37261)" size="2" pos="34" show="37261" value="918d"/>
    <field name="udp.dstport" showname="Destination port: kerberos (88)" size="2" pos="36" show="88" value="0058"/>
    <field name="udp.port" showname="Source or Destination Port: 37261" hide="yes" size="2" pos="34" show="37261" value="918d"/>
    <field name="udp.port" showname="Source or Destination Port: 88" hide="yes" size="2" pos="36" show="88" value="0058"/>
    <field name="udp.length" showname="Length: 205" size="2" pos="38" show="205" value="00cd"/>
    <field name="udp.checksum_coverage" showname="Checksum coverage: 205" hide="yes" size="0" pos="38" show="205"/>
    <field name="udp.checksum" showname="Checksum: 0x846d [validation disabled]" size="2" pos="40" show="0x846d" value="846d">
      <field name="udp.checksum_good" showname="Good Checksum: False" size="2" pos="40" show="0" value="846d"/>
      <field name="udp.checksum_bad" showname="Bad Checksum: False" size="2" pos="40" show="0" value="846d"/>
    </field>
  </proto>
  <proto name="kerberos" showname="Kerberos AS-REQ" size="197" pos="42">
    <field name="kerberos.pvno" showname="Pvno: 5" size="1" pos="52" show="5" value="05"/>
    <field name="kerberos.msg.type" showname="MSG Type: AS-REQ (10)" size="1" pos="57" show="10" value="0a"/>
    <field name="kerberos.padata" showname="padata: Unknown:149" size="12" pos="62" show="" value="">
      <field name="kerberos.padata.type" showname="Type: Unknown (149)" size="2" pos="68" show="149" value="0095">
        <field name="kerberos.padata.value" showname="Value: &lt;MISSING&gt;" size="0" pos="74" show=""/>
      </field>
    </field>
    <field name="kerberos.kdc_req_body" showname="KDC_REQ_BODY" size="162" pos="77" show="" value="">
      <field name="ber.bitstring.padding" showname="Padding: 0" size="1" pos="84" show="0" value="00"/>
      <field name="kerberos.kdcoptions" showname="KDCOptions: 40800000 (Forwardable, Renewable)" size="4" pos="85" show="40:80:00:00" value="40800000">
        <field name="kerberos.kdcoptions.forwardable" showname=".1.. .... .... .... .... .... .... .... = Forwardable: FORWARDABLE tickets are allowed/requested" size="4" pos="85" show="1" value="1" unmaskedvalue="40800000"/>
        <field name="kerberos.kdcoptions.forwarded" showname="..0. .... .... .... .... .... .... .... = Forwarded: This is NOT a forwarded ticket" size="4" pos="85" show="0" value="0" unmaskedvalue="40800000"/>
        <field name="kerberos.kdcoptions.proxiable" showname="...0 .... .... .... .... .... .... .... = Proxiable: Do NOT use proxiable tickets" size="4" pos="85" show="0" value="0" unmaskedvalue="40800000"/>
        <field name="kerberos.kdcoptions.proxy" showname=".... 0... .... .... .... .... .... .... = Proxy: This ticket has NOT been proxied" size="4" pos="85" show="0" value="0" unmaskedvalue="40800000"/>
        <field name="kerberos.kdcoptions.allow_postdate" showname=".... .0.. .... .... .... .... .... .... = Allow Postdate: We do NOT allow the ticket to be postdated" size="4" pos="85" show="0" value="0" unmaskedvalue="40800000"/>
        <field name="kerberos.kdcoptions.postdated" showname=".... ..0. .... .... .... .... .... .... = Postdated: This ticket is NOT postdated" size="4" pos="85" show="0" value="0" unmaskedvalue="40800000"/>
        <field name="kerberos.kdcoptions.renewable" showname=".... .... 1... .... .... .... .... .... = Renewable: This ticket is RENEWABLE" size="4" pos="85" show="1" value="1" unmaskedvalue="40800000"/>
        <field name="kerberos.kdcoptions.opt_hardware_auth" showname=".... .... ...0 .... .... .... .... .... = Opt HW Auth: False" size="4" pos="85" show="0" value="0" unmaskedvalue="40800000"/>
        <field name="kerberos.kdcoptions.constrained_delegation" showname=".... .... .... ..0. .... .... .... .... = Constrained Delegation: This is a normal request (no constrained delegation)" size="4" pos="85" show="0" value="0" unmaskedvalue="40800000"/>
        <field name="kerberos.kdcoptions.canonicalize" showname=".... .... .... ...0 .... .... .... .... = Canonicalize: This is NOT a canonicalized ticket request" size="4" pos="85" show="0" value="0" unmaskedvalue="40800000"/>
        <field name="kerberos.kdcoptions.disable_transited_check" showname=".... .... .... .... .... .... ..0. .... = Disable Transited Check: Transited checking is NOT disabled" size="4" pos="85" show="0" value="0" unmaskedvalue="40800000"/>
        <field name="kerberos.kdcoptions.renewable_ok" showname=".... .... .... .... .... .... ...0 .... = Renewable OK: We do NOT accept renewed tickets" size="4" pos="85" show="0" value="0" unmaskedvalue="40800000"/>
        <field name="kerberos.kdcoptions.enc_tkt_in_skey" showname=".... .... .... .... .... .... .... 0... = Enc-Tkt-in-Skey: Do NOT encrypt the tkt using the skey" size="4" pos="85" show="0" value="0" unmaskedvalue="40800000"/>
        <field name="kerberos.kdcoptions.renew" showname=".... .... .... .... .... .... .... ..0. = Renew: This is NOT a request to renew a ticket" size="4" pos="85" show="0" value="0" unmaskedvalue="40800000"/>
        <field name="kerberos.kdcoptions.validate" showname=".... .... .... .... .... .... .... ...0 = Validate: This is NOT a request to validate a postdated ticket" size="4" pos="85" show="0" value="0" unmaskedvalue="40800000"/>
      </field>
      <field name="kerberos.cname" showname="Client Name (Principal): user1" size="18" pos="91" show="" value="">
        <field name="kerberos.name_type" showname="Name-type: Principal (1)" size="1" pos="97" show="1" value="01"/>
        <field name="kerberos.name_string" showname="Name: user1" size="5" pos="104" show="user1" value="7573657231"/>
      </field>
      <field name="kerberos.realm" showname="Realm: EXAMPLE.COM" size="11" pos="113" show="EXAMPLE.COM" value="4558414d504c452e434f4d"/>
      <field name="kerberos.sname" showname="Server Name (Service and Instance): krbtgt/EXAMPLE.COM" size="32" pos="126" show="" value="">
        <field name="kerberos.name_type" showname="Name-type: Service and Instance (2)" size="1" pos="132" show="2" value="02"/>
        <field name="kerberos.name_string" showname="Name: krbtgt" size="6" pos="139" show="krbtgt" value="6b7262746774"/>
        <field name="kerberos.name_string" showname="Name: EXAMPLE.COM" size="11" pos="147" show="EXAMPLE.COM" value="4558414d504c452e434f4d"/>
      </field>
      <field name="kerberos.from" showname="from: 2012-12-07 22:23:50 (UTC)" size="15" pos="162" show="2012-12-07 22:23:50 (UTC)" value="32303132313230373232323335305a"/>
      <field name="kerberos.till" showname="till: 2012-12-08 22:23:50 (UTC)" size="15" pos="181" show="2012-12-08 22:23:50 (UTC)" value="32303132313230383232323335305a"/>
      <field name="kerberos.rtime" showname="rtime: 2012-12-14 22:23:50 (UTC)" size="15" pos="200" show="2012-12-14 22:23:50 (UTC)" value="32303132313231343232323335305a"/>
      <field name="kerberos.nonce" showname="Nonce: 1215016311" size="4" pos="219" show="1215016311" value="486bad77"/>
      <field name="kerberos.etypes" showname="Encryption Types: aes128-cts-hmac-sha1-96 aes128-cts-hmac-sha1-96 aes128-cts-hmac-sha1-96 rc4-hmac" size="12" pos="227" show="" value="">
        <field name="kerberos.etype" showname="Encryption type: aes128-cts-hmac-sha1-96 (17)" size="1" pos="229" show="17" value="11"/>
        <field name="kerberos.etype" showname="Encryption type: aes128-cts-hmac-sha1-96 (17)" size="1" pos="232" show="17" value="11"/>
        <field name="kerberos.etype" showname="Encryption type: aes128-cts-hmac-sha1-96 (17)" size="1" pos="235" show="17" value="11"/>
        <field name="kerberos.etype" showname="Encryption type: rc4-hmac (23)" size="1" pos="238" show="23" value="17"/>
      </field>
    </field>
  </proto>
</packet>


<packet>
  <proto name="geninfo" pos="0" showname="General information" size="281">
    <field name="num" pos="0" show="12" showname="Number" value="c" size="281"/>
    <field name="len" pos="0" show="281" showname="Frame Length" value="119" size="281"/>
    <field name="caplen" pos="0" show="281" showname="Captured Length" value="119" size="281"/>
    <field name="timestamp" pos="0" show="Nov 21, 2012 22:07:51.340360000 CET" showname="Captured Time" value="1353532071.340360000" size="281"/>
  </proto>
  <proto name="frame" showname="Frame 12: 281 bytes on wire (2248 bits), 281 bytes captured (2248 bits)" size="281" pos="0">
    <field name="frame.encap_type" showname="Encapsulation type: Ethernet (1)" size="0" pos="0" show="1"/>
    <field name="frame.time" showname="Arrival Time: Nov 21, 2012 22:07:51.340360000 CET" size="0" pos="0" show="Nov 21, 2012 22:07:51.340360000"/>
    <field name="frame.offset_shift" showname="Time shift for this packet: 0.000000000 seconds" size="0" pos="0" show="0.000000000"/>
    <field name="frame.time_epoch" showname="Epoch Time: 1353532071.340360000 seconds" size="0" pos="0" show="1353532071.340360000"/>
    <field name="frame.time_delta" showname="Time delta from previous captured frame: 0.001461000 seconds" size="0" pos="0" show="0.001461000"/>
    <field name="frame.time_delta_displayed" showname="Time delta from previous displayed frame: 0.001461000 seconds" size="0" pos="0" show="0.001461000"/>
    <field name="frame.time_relative" showname="Time since reference or first frame: 1.849131000 seconds" size="0" pos="0" show="1.849131000"/>
    <field name="frame.number" showname="Frame Number: 12" size="0" pos="0" show="12"/>
    <field name="frame.len" showname="Frame Length: 281 bytes (2248 bits)" size="0" pos="0" show="281"/>
    <field name="frame.cap_len" showname="Capture Length: 281 bytes (2248 bits)" size="0" pos="0" show="281"/>
    <field name="frame.marked" showname="Frame is marked: False" size="0" pos="0" show="0"/>
    <field name="frame.ignored" showname="Frame is ignored: False" size="0" pos="0" show="0"/>
    <field name="frame.protocols" showname="Protocols in frame: eth:ip:udp:kerberos" size="0" pos="0" show="eth:ip:udp:kerberos"/>
  </proto>
  <proto name="eth" showname="Ethernet II, Src: CadmusCo_4d:1e:78 (08:00:27:4d:1e:78), Dst: Giga-Byt_7e:5d:d5 (00:24:1d:7e:5d:d5)" size="14" pos="0">
    <field name="eth.dst" showname="Destination: Giga-Byt_7e:5d:d5 (00:24:1d:7e:5d:d5)" size="6" pos="0" show="00:24:1d:7e:5d:d5" value="00241d7e5dd5">
      <field name="eth.addr" showname="Address: Giga-Byt_7e:5d:d5 (00:24:1d:7e:5d:d5)" size="6" pos="0" show="00:24:1d:7e:5d:d5" value="00241d7e5dd5"/>
      <field name="eth.lg" showname=".... ..0. .... .... .... .... = LG bit: Globally unique address (factory default)" size="3" pos="0" show="0" value="0" unmaskedvalue="00241d"/>
      <field name="eth.ig" showname=".... ...0 .... .... .... .... = IG bit: Individual address (unicast)" size="3" pos="0" show="0" value="0" unmaskedvalue="00241d"/>
    </field>
    <field name="eth.src" showname="Source: CadmusCo_4d:1e:78 (08:00:27:4d:1e:78)" size="6" pos="6" show="08:00:27:4d:1e:78" value="0800274d1e78">
      <field name="eth.addr" showname="Address: CadmusCo_4d:1e:78 (08:00:27:4d:1e:78)" size="6" pos="6" show="08:00:27:4d:1e:78" value="0800274d1e78"/>
      <field name="eth.lg" showname=".... ..0. .... .... .... .... = LG bit: Globally unique address (factory default)" size="3" pos="6" show="0" value="0" unmaskedvalue="080027"/>
      <field name="eth.ig" showname=".... ...0 .... .... .... .... = IG bit: Individual address (unicast)" size="3" pos="6" show="0" value="0" unmaskedvalue="080027"/>
    </field>
    <field name="eth.type" showname="Type: IP (0x0800)" size="2" pos="12" show="0x0800" value="0800"/>
  </proto>
  <proto name="ip" showname="Internet Protocol Version 4, Src: 192.168.2.17 (192.168.2.17), Dst: 192.168.2.252 (192.168.2.252)" size="20" pos="14">
    <field name="ip.version" showname="Version: 4" size="1" pos="14" show="4" value="45"/>
    <field name="ip.hdr_len" showname="Header length: 20 bytes" size="1" pos="14" show="20" value="45"/>
    <field name="ip.dsfield" showname="Differentiated Services Field: 0x00 (DSCP 0x00: Default; ECN: 0x00: Not-ECT (Not ECN-Capable Transport))" size="1" pos="15" show="0" value="00">
      <field name="ip.dsfield.dscp" showname="0000 00.. = Differentiated Services Codepoint: Default (0x00)" size="1" pos="15" show="0x00" value="0" unmaskedvalue="00"/>
      <field name="ip.dsfield.ecn" showname=".... ..00 = Explicit Congestion Notification: Not-ECT (Not ECN-Capable Transport) (0x00)" size="1" pos="15" show="0x00" value="0" unmaskedvalue="00"/>
    </field>
    <field name="ip.len" showname="Total Length: 267" size="2" pos="16" show="267" value="010b"/>
    <field name="ip.id" showname="Identification: 0x0000 (0)" size="2" pos="18" show="0x0000" value="0000"/>
    <field name="ip.flags" showname="Flags: 0x02 (Don&apos;t Fragment)" size="1" pos="20" show="0x02" value="40">
      <field name="ip.flags.rb" showname="0... .... = Reserved bit: Not set" size="1" pos="20" show="0" value="40"/>
      <field name="ip.flags.df" showname=".1.. .... = Don&apos;t fragment: Set" size="1" pos="20" show="1" value="40"/>
      <field name="ip.flags.mf" showname="..0. .... = More fragments: Not set" size="1" pos="20" show="0" value="40"/>
    </field>
    <field name="ip.frag_offset" showname="Fragment offset: 0" size="2" pos="20" show="0" value="4000"/>
    <field name="ip.ttl" showname="Time to live: 64" size="1" pos="22" show="64" value="40"/>
    <field name="ip.proto" showname="Protocol: UDP (17)" size="1" pos="23" show="17" value="11"/>
    <field name="ip.checksum" showname="Header checksum: 0xb384 [validation disabled]" size="2" pos="24" show="0xb384" value="b384">
      <field name="ip.checksum_good" showname="Good: False" size="2" pos="24" show="0" value="b384"/>
      <field name="ip.checksum_bad" showname="Bad: False" size="2" pos="24" show="0" value="b384"/>
    </field>
    <field name="ip.src" showname="Source: 192.168.2.17 (192.168.2.17)" size="4" pos="26" show="192.168.2.17" value="c0a80211"/>
    <field name="ip.addr" showname="Source or Destination Address: 192.168.2.17 (192.168.2.17)" hide="yes" size="4" pos="26" show="192.168.2.17" value="c0a80211"/>
    <field name="ip.src_host" showname="Source Host: 192.168.2.17" hide="yes" size="4" pos="26" show="192.168.2.17" value="c0a80211"/>
    <field name="ip.host" showname="Source or Destination Host: 192.168.2.17" hide="yes" size="4" pos="26" show="192.168.2.17" value="c0a80211"/>
    <field name="ip.dst" showname="Destination: 192.168.2.252 (192.168.2.252)" size="4" pos="30" show="192.168.2.252" value="c0a802fc"/>
    <field name="ip.addr" showname="Source or Destination Address: 192.168.2.252 (192.168.2.252)" hide="yes" size="4" pos="30" show="192.168.2.252" value="c0a802fc"/>
    <field name="ip.dst_host" showname="Destination Host: 192.168.2.252" hide="yes" size="4" pos="30" show="192.168.2.252" value="c0a802fc"/>
    <field name="ip.host" showname="Source or Destination Host: 192.168.2.252" hide="yes" size="4" pos="30" show="192.168.2.252" value="c0a802fc"/>
    <field name="" show="Source GeoIP: Unknown" size="4" pos="26" value="c0a80211"/>
    <field name="" show="Destination GeoIP: Unknown" size="4" pos="30" value="c0a802fc"/>
  </proto>
  <proto name="udp" showname="User Datagram Protocol, Src Port: kerberos (88), Dst Port: 37261 (37261)" size="8" pos="34">
    <field name="udp.srcport" showname="Source port: kerberos (88)" size="2" pos="34" show="88" value="0058"/>
    <field name="udp.dstport" showname="Destination port: 37261 (37261)" size="2" pos="36" show="37261" value="918d"/>
    <field name="udp.port" showname="Source or Destination Port: 88" hide="yes" size="2" pos="34" show="88" value="0058"/>
    <field name="udp.port" showname="Source or Destination Port: 37261" hide="yes" size="2" pos="36" show="37261" value="918d"/>
    <field name="udp.length" showname="Length: 247" size="2" pos="38" show="247" value="00f7"/>
    <field name="udp.checksum_coverage" showname="Checksum coverage: 247" hide="yes" size="0" pos="38" show="247"/>
    <field name="udp.checksum" showname="Checksum: 0x8766 [validation disabled]" size="2" pos="40" show="0x8766" value="8766">
      <field name="udp.checksum_good" showname="Good Checksum: False" size="2" pos="40" show="0" value="8766"/>
      <field name="udp.checksum_bad" showname="Bad Checksum: False" size="2" pos="40" show="0" value="8766"/>
    </field>
  </proto>
  <proto name="kerberos" showname="Kerberos KRB-ERROR" size="239" pos="42">
    <field name="kerberos.pvno" showname="Pvno: 5" size="1" pos="52" show="5" value="05"/>
    <field name="kerberos.msg.type" showname="MSG Type: KRB-ERROR (30)" size="1" pos="57" show="30" value="1e"/>
    <field name="kerberos.ctime" showname="ctime: 2008-07-02 16:31:51 (UTC)" size="15" pos="62" show="2008-07-02 16:31:51 (UTC)" value="32303038303730323136333135315a"/>
    <field name="kerberos.stime" showname="stime: 2012-11-21 21:07:51 (UTC)" size="15" pos="81" show="2012-11-21 21:07:51 (UTC)" value="32303132313132313231303735315a"/>
    <field name="kerberos.susec" showname="susec: 340286" size="3" pos="100" show="340286" value="05313e"/>
    <field name="kerberos.error_code" showname="error_code: KRB5KDC_ERR_PREAUTH_REQUIRED (25)" size="1" pos="107" show="25" value="19"/>
    <field name="kerberos.crealm" showname="Client Realm: EXAMPLE.COM" size="11" pos="112" show="EXAMPLE.COM" value="4558414d504c452e434f4d"/>
    <field name="kerberos.cname" showname="Client Name (Principal): user1" size="18" pos="125" show="" value="">
      <field name="kerberos.name_type" showname="Name-type: Principal (1)" size="1" pos="131" show="1" value="01"/>
      <field name="kerberos.name_string" showname="Name: user1" size="5" pos="138" show="user1" value="7573657231"/>
    </field>
    <field name="kerberos.realm" showname="Realm: EXAMPLE.COM" size="11" pos="147" show="EXAMPLE.COM" value="4558414d504c452e434f4d"/>
    <field name="kerberos.sname" showname="Server Name (Service and Instance): krbtgt/EXAMPLE.COM" size="32" pos="160" show="" value="">
      <field name="kerberos.name_type" showname="Name-type: Service and Instance (2)" size="1" pos="166" show="2" value="02"/>
      <field name="kerberos.name_string" showname="Name: krbtgt" size="6" pos="173" show="krbtgt" value="6b7262746774"/>
      <field name="kerberos.name_string" showname="Name: EXAMPLE.COM" size="11" pos="181" show="EXAMPLE.COM" value="4558414d504c452e434f4d"/>
    </field>
    <field name="kerberos.e_text" showname="e-text: NEEDED_PREAUTH" size="14" pos="196" show="NEEDED_PREAUTH" value="4e45454445445f50524541555448"/>
    <field name="kerberos.e_data" showname="e-data" size="67" pos="214" show="" value="">
      <field name="kerberos.padata" showname="padata: PA-ENC-TIMESTAMP Unknown:136 PA-ENCTYPE-INFO2 Unknown:133" size="65" pos="216" show="" value="">
        <field name="kerberos.padata.type" showname="Type: PA-ENC-TIMESTAMP (2)" size="1" pos="222" show="2" value="02">
          <field name="kerberos.padata.value" showname="Value: &lt;MISSING&gt;" size="0" pos="227" show=""/>
        </field>
        <field name="kerberos.padata.type" showname="Type: Unknown (136)" size="2" pos="233" show="136" value="0088">
          <field name="kerberos.padata.value" showname="Value: &lt;MISSING&gt;" size="0" pos="239" show=""/>
        </field>
        <field name="kerberos.padata.type" showname="Type: PA-ENCTYPE-INFO2 (19)" size="1" pos="245" show="19" value="13">
          <field name="kerberos.padata.value" showname="Value: 300e3005a0030201113005a003020117 aes128-cts-hmac-sha1-96 rc4-hmac" size="16" pos="250" show="30:0e:30:05:a0:03:02:01:11:30:05:a0:03:02:01:17" value="300e3005a0030201113005a003020117">
            <field name="kerberos.etype" showname="Encryption type: aes128-cts-hmac-sha1-96 (17)" size="1" pos="258" show="17" value="11"/>
            <field name="kerberos.etype" showname="Encryption type: rc4-hmac (23)" size="1" pos="265" show="23" value="17"/>
          </field>
        </field>
        <field name="kerberos.padata.type" showname="Type: Unknown (133)" size="2" pos="272" show="133" value="0085">
          <field name="kerberos.padata.value" showname="Value: 4d4954" size="3" pos="278" show="4d:49:54" value="4d4954"/>
        </field>
      </field>
    </field>
  </proto>
</packet>


<packet>
  <proto name="geninfo" pos="0" showname="General information" size="334">
    <field name="num" pos="0" show="13" showname="Number" value="d" size="334"/>
    <field name="len" pos="0" show="334" showname="Frame Length" value="14e" size="334"/>
    <field name="caplen" pos="0" show="334" showname="Captured Length" value="14e" size="334"/>
    <field name="timestamp" pos="0" show="Nov 21, 2012 22:07:51.347953000 CET" showname="Captured Time" value="1353532071.347953000" size="334"/>
  </proto>
  <proto name="frame" showname="Frame 13: 334 bytes on wire (2672 bits), 334 bytes captured (2672 bits)" size="334" pos="0">
    <field name="frame.encap_type" showname="Encapsulation type: Ethernet (1)" size="0" pos="0" show="1"/>
    <field name="frame.time" showname="Arrival Time: Nov 21, 2012 22:07:51.347953000 CET" size="0" pos="0" show="Nov 21, 2012 22:07:51.347953000"/>
    <field name="frame.offset_shift" showname="Time shift for this packet: 0.000000000 seconds" size="0" pos="0" show="0.000000000"/>
    <field name="frame.time_epoch" showname="Epoch Time: 1353532071.347953000 seconds" size="0" pos="0" show="1353532071.347953000"/>
    <field name="frame.time_delta" showname="Time delta from previous captured frame: 0.007593000 seconds" size="0" pos="0" show="0.007593000"/>
    <field name="frame.time_delta_displayed" showname="Time delta from previous displayed frame: 0.007593000 seconds" size="0" pos="0" show="0.007593000"/>
    <field name="frame.time_relative" showname="Time since reference or first frame: 1.856724000 seconds" size="0" pos="0" show="1.856724000"/>
    <field name="frame.number" showname="Frame Number: 13" size="0" pos="0" show="13"/>
    <field name="frame.len" showname="Frame Length: 334 bytes (2672 bits)" size="0" pos="0" show="334"/>
    <field name="frame.cap_len" showname="Capture Length: 334 bytes (2672 bits)" size="0" pos="0" show="334"/>
    <field name="frame.marked" showname="Frame is marked: False" size="0" pos="0" show="0"/>
    <field name="frame.ignored" showname="Frame is ignored: False" size="0" pos="0" show="0"/>
    <field name="frame.protocols" showname="Protocols in frame: eth:ip:udp:kerberos" size="0" pos="0" show="eth:ip:udp:kerberos"/>
  </proto>
  <proto name="eth" showname="Ethernet II, Src: Giga-Byt_7e:5d:d5 (00:24:1d:7e:5d:d5), Dst: CadmusCo_4d:1e:78 (08:00:27:4d:1e:78)" size="14" pos="0">
    <field name="eth.dst" showname="Destination: CadmusCo_4d:1e:78 (08:00:27:4d:1e:78)" size="6" pos="0" show="08:00:27:4d:1e:78" value="0800274d1e78">
      <field name="eth.addr" showname="Address: CadmusCo_4d:1e:78 (08:00:27:4d:1e:78)" size="6" pos="0" show="08:00:27:4d:1e:78" value="0800274d1e78"/>
      <field name="eth.lg" showname=".... ..0. .... .... .... .... = LG bit: Globally unique address (factory default)" size="3" pos="0" show="0" value="0" unmaskedvalue="080027"/>
      <field name="eth.ig" showname=".... ...0 .... .... .... .... = IG bit: Individual address (unicast)" size="3" pos="0" show="0" value="0" unmaskedvalue="080027"/>
    </field>
    <field name="eth.src" showname="Source: Giga-Byt_7e:5d:d5 (00:24:1d:7e:5d:d5)" size="6" pos="6" show="00:24:1d:7e:5d:d5" value="00241d7e5dd5">
      <field name="eth.addr" showname="Address: Giga-Byt_7e:5d:d5 (00:24:1d:7e:5d:d5)" size="6" pos="6" show="00:24:1d:7e:5d:d5" value="00241d7e5dd5"/>
      <field name="eth.lg" showname=".... ..0. .... .... .... .... = LG bit: Globally unique address (factory default)" size="3" pos="6" show="0" value="0" unmaskedvalue="00241d"/>
      <field name="eth.ig" showname=".... ...0 .... .... .... .... = IG bit: Individual address (unicast)" size="3" pos="6" show="0" value="0" unmaskedvalue="00241d"/>
    </field>
    <field name="eth.type" showname="Type: IP (0x0800)" size="2" pos="12" show="0x0800" value="0800"/>
  </proto>
  <proto name="ip" showname="Internet Protocol Version 4, Src: 192.168.2.252 (192.168.2.252), Dst: 192.168.2.17 (192.168.2.17)" size="20" pos="14">
    <field name="ip.version" showname="Version: 4" size="1" pos="14" show="4" value="45"/>
    <field name="ip.hdr_len" showname="Header length: 20 bytes" size="1" pos="14" show="20" value="45"/>
    <field name="ip.dsfield" showname="Differentiated Services Field: 0x00 (DSCP 0x00: Default; ECN: 0x00: Not-ECT (Not ECN-Capable Transport))" size="1" pos="15" show="0" value="00">
      <field name="ip.dsfield.dscp" showname="0000 00.. = Differentiated Services Codepoint: Default (0x00)" size="1" pos="15" show="0x00" value="0" unmaskedvalue="00"/>
      <field name="ip.dsfield.ecn" showname=".... ..00 = Explicit Congestion Notification: Not-ECT (Not ECN-Capable Transport) (0x00)" size="1" pos="15" show="0x00" value="0" unmaskedvalue="00"/>
    </field>
    <field name="ip.len" showname="Total Length: 320" size="2" pos="16" show="320" value="0140"/>
    <field name="ip.id" showname="Identification: 0x6e01 (28161)" size="2" pos="18" show="0x6e01" value="6e01"/>
    <field name="ip.flags" showname="Flags: 0x02 (Don&apos;t Fragment)" size="1" pos="20" show="0x02" value="40">
      <field name="ip.flags.rb" showname="0... .... = Reserved bit: Not set" size="1" pos="20" show="0" value="40"/>
      <field name="ip.flags.df" showname=".1.. .... = Don&apos;t fragment: Set" size="1" pos="20" show="1" value="40"/>
      <field name="ip.flags.mf" showname="..0. .... = More fragments: Not set" size="1" pos="20" show="0" value="40"/>
    </field>
    <field name="ip.frag_offset" showname="Fragment offset: 0" size="2" pos="20" show="0" value="4000"/>
    <field name="ip.ttl" showname="Time to live: 64" size="1" pos="22" show="64" value="40"/>
    <field name="ip.proto" showname="Protocol: UDP (17)" size="1" pos="23" show="17" value="11"/>
    <field name="ip.checksum" showname="Header checksum: 0x454e [validation disabled]" size="2" pos="24" show="0x454e" value="454e">
      <field name="ip.checksum_good" showname="Good: False" size="2" pos="24" show="0" value="454e"/>
      <field name="ip.checksum_bad" showname="Bad: False" size="2" pos="24" show="0" value="454e"/>
    </field>
    <field name="ip.src" showname="Source: 192.168.2.252 (192.168.2.252)" size="4" pos="26" show="192.168.2.252" value="c0a802fc"/>
    <field name="ip.addr" showname="Source or Destination Address: 192.168.2.252 (192.168.2.252)" hide="yes" size="4" pos="26" show="192.168.2.252" value="c0a802fc"/>
    <field name="ip.src_host" showname="Source Host: 192.168.2.252" hide="yes" size="4" pos="26" show="192.168.2.252" value="c0a802fc"/>
    <field name="ip.host" showname="Source or Destination Host: 192.168.2.252" hide="yes" size="4" pos="26" show="192.168.2.252" value="c0a802fc"/>
    <field name="ip.dst" showname="Destination: 192.168.2.17 (192.168.2.17)" size="4" pos="30" show="192.168.2.17" value="c0a80211"/>
    <field name="ip.addr" showname="Source or Destination Address: 192.168.2.17 (192.168.2.17)" hide="yes" size="4" pos="30" show="192.168.2.17" value="c0a80211"/>
    <field name="ip.dst_host" showname="Destination Host: 192.168.2.17" hide="yes" size="4" pos="30" show="192.168.2.17" value="c0a80211"/>
    <field name="ip.host" showname="Source or Destination Host: 192.168.2.17" hide="yes" size="4" pos="30" show="192.168.2.17" value="c0a80211"/>
    <field name="" show="Source GeoIP: Unknown" size="4" pos="26" value="c0a802fc"/>
    <field name="" show="Destination GeoIP: Unknown" size="4" pos="30" value="c0a80211"/>
  </proto>
  <proto name="udp" showname="User Datagram Protocol, Src Port: 52718 (52718), Dst Port: kerberos (88)" size="8" pos="34">
    <field name="udp.srcport" showname="Source port: 52718 (52718)" size="2" pos="34" show="52718" value="cdee"/>
    <field name="udp.dstport" showname="Destination port: kerberos (88)" size="2" pos="36" show="88" value="0058"/>
    <field name="udp.port" showname="Source or Destination Port: 52718" hide="yes" size="2" pos="34" show="52718" value="cdee"/>
    <field name="udp.port" showname="Source or Destination Port: 88" hide="yes" size="2" pos="36" show="88" value="0058"/>
    <field name="udp.length" showname="Length: 300" size="2" pos="38" show="300" value="012c"/>
    <field name="udp.checksum_coverage" showname="Checksum coverage: 300" hide="yes" size="0" pos="38" show="300"/>
    <field name="udp.checksum" showname="Checksum: 0xe2e4 [validation disabled]" size="2" pos="40" show="0xe2e4" value="e2e4">
      <field name="udp.checksum_good" showname="Good Checksum: False" size="2" pos="40" show="0" value="e2e4"/>
      <field name="udp.checksum_bad" showname="Bad Checksum: False" size="2" pos="40" show="0" value="e2e4"/>
    </field>
  </proto>
  <proto name="kerberos" showname="Kerberos AS-REQ" size="292" pos="42">
    <field name="kerberos.pvno" showname="Pvno: 5" size="1" pos="54" show="5" value="05"/>
    <field name="kerberos.msg.type" showname="MSG Type: AS-REQ (10)" size="1" pos="59" show="10" value="0a"/>
    <field name="kerberos.padata" showname="padata: Unknown:133 PA-ENC-TIMESTAMP Unknown:149" size="105" pos="64" show="" value="">
      <field name="kerberos.padata.type" showname="Type: Unknown (133)" size="2" pos="70" show="133" value="0085">
        <field name="kerberos.padata.value" showname="Value: 4d4954" size="3" pos="76" show="4d:49:54" value="4d4954"/>
      </field>
      <field name="kerberos.padata.type" showname="Type: PA-ENC-TIMESTAMP (2)" size="1" pos="85" show="2" value="02">
        <field name="kerberos.padata.value" showname="Value: 3041a003020111a23a0438c5461873dc13665771b98ba80b... aes128-cts-hmac-sha1-96" size="67" pos="90" show="30:41:a0:03:02:01:11:a2:3a:04:38:c5:46:18:73:dc:13:66:57:71:b9:8b:a8:0b:e5:39:39:e9:06:d9:0a:e1:ba:79:cf:2e:21:f0:39:5e:50:ee:56:37:9f:be:f4:d0:29:8c:fc:cf:d6:cf:8f:90:73:29:12:00:48:fd:05:e8:ae:5d:f4" value="3041a003020111a23a0438c5461873dc13665771b98ba80be53939e906d90ae1ba79cf2e21f0395e50ee56379fbef4d0298cfccfd6cf8f907329120048fd05e8ae5df4">
          <field name="kerberos.etype" showname="Encryption type: aes128-cts-hmac-sha1-96 (17)" size="1" pos="96" show="17" value="11"/>
          <field name="kerberos.PA_ENC_TIMESTAMP.encrypted" showname="enc PA_ENC_TIMESTAMP: c5461873dc13665771b98ba80be53939e906d90ae1ba79cf..." size="56" pos="101" show="c5:46:18:73:dc:13:66:57:71:b9:8b:a8:0b:e5:39:39:e9:06:d9:0a:e1:ba:79:cf:2e:21:f0:39:5e:50:ee:56:37:9f:be:f4:d0:29:8c:fc:cf:d6:cf:8f:90:73:29:12:00:48:fd:05:e8:ae:5d:f4" value="c5461873dc13665771b98ba80be53939e906d90ae1ba79cf2e21f0395e50ee56379fbef4d0298cfccfd6cf8f907329120048fd05e8ae5df4"/>
        </field>
      </field>
      <field name="kerberos.padata.type" showname="Type: Unknown (149)" size="2" pos="163" show="149" value="0095">
        <field name="kerberos.padata.value" showname="Value: &lt;MISSING&gt;" size="0" pos="169" show=""/>
      </field>
    </field>
    <field name="kerberos.kdc_req_body" showname="KDC_REQ_BODY" size="162" pos="172" show="" value="">
      <field name="ber.bitstring.padding" showname="Padding: 0" size="1" pos="179" show="0" value="00"/>
      <field name="kerberos.kdcoptions" showname="KDCOptions: 40800000 (Forwardable, Renewable)" size="4" pos="180" show="40:80:00:00" value="40800000">
        <field name="kerberos.kdcoptions.forwardable" showname=".1.. .... .... .... .... .... .... .... = Forwardable: FORWARDABLE tickets are allowed/requested" size="4" pos="180" show="1" value="1" unmaskedvalue="40800000"/>
        <field name="kerberos.kdcoptions.forwarded" showname="..0. .... .... .... .... .... .... .... = Forwarded: This is NOT a forwarded ticket" size="4" pos="180" show="0" value="0" unmaskedvalue="40800000"/>
        <field name="kerberos.kdcoptions.proxiable" showname="...0 .... .... .... .... .... .... .... = Proxiable: Do NOT use proxiable tickets" size="4" pos="180" show="0" value="0" unmaskedvalue="40800000"/>
        <field name="kerberos.kdcoptions.proxy" showname=".... 0... .... .... .... .... .... .... = Proxy: This ticket has NOT been proxied" size="4" pos="180" show="0" value="0" unmaskedvalue="40800000"/>
        <field name="kerberos.kdcoptions.allow_postdate" showname=".... .0.. .... .... .... .... .... .... = Allow Postdate: We do NOT allow the ticket to be postdated" size="4" pos="180" show="0" value="0" unmaskedvalue="40800000"/>
        <field name="kerberos.kdcoptions.postdated" showname=".... ..0. .... .... .... .... .... .... = Postdated: This ticket is NOT postdated" size="4" pos="180" show="0" value="0" unmaskedvalue="40800000"/>
        <field name="kerberos.kdcoptions.renewable" showname=".... .... 1... .... .... .... .... .... = Renewable: This ticket is RENEWABLE" size="4" pos="180" show="1" value="1" unmaskedvalue="40800000"/>
        <field name="kerberos.kdcoptions.opt_hardware_auth" showname=".... .... ...0 .... .... .... .... .... = Opt HW Auth: False" size="4" pos="180" show="0" value="0" unmaskedvalue="40800000"/>
        <field name="kerberos.kdcoptions.constrained_delegation" showname=".... .... .... ..0. .... .... .... .... = Constrained Delegation: This is a normal request (no constrained delegation)" size="4" pos="180" show="0" value="0" unmaskedvalue="40800000"/>
        <field name="kerberos.kdcoptions.canonicalize" showname=".... .... .... ...0 .... .... .... .... = Canonicalize: This is NOT a canonicalized ticket request" size="4" pos="180" show="0" value="0" unmaskedvalue="40800000"/>
        <field name="kerberos.kdcoptions.disable_transited_check" showname=".... .... .... .... .... .... ..0. .... = Disable Transited Check: Transited checking is NOT disabled" size="4" pos="180" show="0" value="0" unmaskedvalue="40800000"/>
        <field name="kerberos.kdcoptions.renewable_ok" showname=".... .... .... .... .... .... ...0 .... = Renewable OK: We do NOT accept renewed tickets" size="4" pos="180" show="0" value="0" unmaskedvalue="40800000"/>
        <field name="kerberos.kdcoptions.enc_tkt_in_skey" showname=".... .... .... .... .... .... .... 0... = Enc-Tkt-in-Skey: Do NOT encrypt the tkt using the skey" size="4" pos="180" show="0" value="0" unmaskedvalue="40800000"/>
        <field name="kerberos.kdcoptions.renew" showname=".... .... .... .... .... .... .... ..0. = Renew: This is NOT a request to renew a ticket" size="4" pos="180" show="0" value="0" unmaskedvalue="40800000"/>
        <field name="kerberos.kdcoptions.validate" showname=".... .... .... .... .... .... .... ...0 = Validate: This is NOT a request to validate a postdated ticket" size="4" pos="180" show="0" value="0" unmaskedvalue="40800000"/>
      </field>
      <field name="kerberos.cname" showname="Client Name (Principal): user1" size="18" pos="186" show="" value="">
        <field name="kerberos.name_type" showname="Name-type: Principal (1)" size="1" pos="192" show="1" value="01"/>
        <field name="kerberos.name_string" showname="Name: user1" size="5" pos="199" show="user1" value="7573657231"/>
      </field>
      <field name="kerberos.realm" showname="Realm: EXAMPLE.COM" size="11" pos="208" show="EXAMPLE.COM" value="4558414d504c452e434f4d"/>
      <field name="kerberos.sname" showname="Server Name (Service and Instance): krbtgt/EXAMPLE.COM" size="32" pos="221" show="" value="">
        <field name="kerberos.name_type" showname="Name-type: Service and Instance (2)" size="1" pos="227" show="2" value="02"/>
        <field name="kerberos.name_string" showname="Name: krbtgt" size="6" pos="234" show="krbtgt" value="6b7262746774"/>
        <field name="kerberos.name_string" showname="Name: EXAMPLE.COM" size="11" pos="242" show="EXAMPLE.COM" value="4558414d504c452e434f4d"/>
      </field>
      <field name="kerberos.from" showname="from: 2012-12-07 22:23:50 (UTC)" size="15" pos="257" show="2012-12-07 22:23:50 (UTC)" value="32303132313230373232323335305a"/>
      <field name="kerberos.till" showname="till: 2012-12-08 22:23:50 (UTC)" size="15" pos="276" show="2012-12-08 22:23:50 (UTC)" value="32303132313230383232323335305a"/>
      <field name="kerberos.rtime" showname="rtime: 2012-12-14 22:23:50 (UTC)" size="15" pos="295" show="2012-12-14 22:23:50 (UTC)" value="32303132313231343232323335305a"/>
      <field name="kerberos.nonce" showname="Nonce: 1215016311" size="4" pos="314" show="1215016311" value="486bad77"/>
      <field name="kerberos.etypes" showname="Encryption Types: aes128-cts-hmac-sha1-96 aes128-cts-hmac-sha1-96 aes128-cts-hmac-sha1-96 rc4-hmac" size="12" pos="322" show="" value="">
        <field name="kerberos.etype" showname="Encryption type: aes128-cts-hmac-sha1-96 (17)" size="1" pos="324" show="17" value="11"/>
        <field name="kerberos.etype" showname="Encryption type: aes128-cts-hmac-sha1-96 (17)" size="1" pos="327" show="17" value="11"/>
        <field name="kerberos.etype" showname="Encryption type: aes128-cts-hmac-sha1-96 (17)" size="1" pos="330" show="17" value="11"/>
        <field name="kerberos.etype" showname="Encryption type: rc4-hmac (23)" size="1" pos="333" show="23" value="17"/>
      </field>
    </field>
  </proto>
</packet>


<packet>
  <proto name="geninfo" pos="0" showname="General information" size="210">
    <field name="num" pos="0" show="14" showname="Number" value="e" size="210"/>
    <field name="len" pos="0" show="210" showname="Frame Length" value="d2" size="210"/>
    <field name="caplen" pos="0" show="210" showname="Captured Length" value="d2" size="210"/>
    <field name="timestamp" pos="0" show="Nov 21, 2012 22:07:51.349963000 CET" showname="Captured Time" value="1353532071.349963000" size="210"/>
  </proto>
  <proto name="frame" showname="Frame 14: 210 bytes on wire (1680 bits), 210 bytes captured (1680 bits)" size="210" pos="0">
    <field name="frame.encap_type" showname="Encapsulation type: Ethernet (1)" size="0" pos="0" show="1"/>
    <field name="frame.time" showname="Arrival Time: Nov 21, 2012 22:07:51.349963000 CET" size="0" pos="0" show="Nov 21, 2012 22:07:51.349963000"/>
    <field name="frame.offset_shift" showname="Time shift for this packet: 0.000000000 seconds" size="0" pos="0" show="0.000000000"/>
    <field name="frame.time_epoch" showname="Epoch Time: 1353532071.349963000 seconds" size="0" pos="0" show="1353532071.349963000"/>
    <field name="frame.time_delta" showname="Time delta from previous captured frame: 0.002010000 seconds" size="0" pos="0" show="0.002010000"/>
    <field name="frame.time_delta_displayed" showname="Time delta from previous displayed frame: 0.002010000 seconds" size="0" pos="0" show="0.002010000"/>
    <field name="frame.time_relative" showname="Time since reference or first frame: 1.858734000 seconds" size="0" pos="0" show="1.858734000"/>
    <field name="frame.number" showname="Frame Number: 14" size="0" pos="0" show="14"/>
    <field name="frame.len" showname="Frame Length: 210 bytes (1680 bits)" size="0" pos="0" show="210"/>
    <field name="frame.cap_len" showname="Capture Length: 210 bytes (1680 bits)" size="0" pos="0" show="210"/>
    <field name="frame.marked" showname="Frame is marked: False" size="0" pos="0" show="0"/>
    <field name="frame.ignored" showname="Frame is ignored: False" size="0" pos="0" show="0"/>
    <field name="frame.protocols" showname="Protocols in frame: eth:ip:udp:kerberos" size="0" pos="0" show="eth:ip:udp:kerberos"/>
  </proto>
  <proto name="eth" showname="Ethernet II, Src: CadmusCo_4d:1e:78 (08:00:27:4d:1e:78), Dst: Giga-Byt_7e:5d:d5 (00:24:1d:7e:5d:d5)" size="14" pos="0">
    <field name="eth.dst" showname="Destination: Giga-Byt_7e:5d:d5 (00:24:1d:7e:5d:d5)" size="6" pos="0" show="00:24:1d:7e:5d:d5" value="00241d7e5dd5">
      <field name="eth.addr" showname="Address: Giga-Byt_7e:5d:d5 (00:24:1d:7e:5d:d5)" size="6" pos="0" show="00:24:1d:7e:5d:d5" value="00241d7e5dd5"/>
      <field name="eth.lg" showname=".... ..0. .... .... .... .... = LG bit: Globally unique address (factory default)" size="3" pos="0" show="0" value="0" unmaskedvalue="00241d"/>
      <field name="eth.ig" showname=".... ...0 .... .... .... .... = IG bit: Individual address (unicast)" size="3" pos="0" show="0" value="0" unmaskedvalue="00241d"/>
    </field>
    <field name="eth.src" showname="Source: CadmusCo_4d:1e:78 (08:00:27:4d:1e:78)" size="6" pos="6" show="08:00:27:4d:1e:78" value="0800274d1e78">
      <field name="eth.addr" showname="Address: CadmusCo_4d:1e:78 (08:00:27:4d:1e:78)" size="6" pos="6" show="08:00:27:4d:1e:78" value="0800274d1e78"/>
      <field name="eth.lg" showname=".... ..0. .... .... .... .... = LG bit: Globally unique address (factory default)" size="3" pos="6" show="0" value="0" unmaskedvalue="080027"/>
      <field name="eth.ig" showname=".... ...0 .... .... .... .... = IG bit: Individual address (unicast)" size="3" pos="6" show="0" value="0" unmaskedvalue="080027"/>
    </field>
    <field name="eth.type" showname="Type: IP (0x0800)" size="2" pos="12" show="0x0800" value="0800"/>
  </proto>
  <proto name="ip" showname="Internet Protocol Version 4, Src: 192.168.2.17 (192.168.2.17), Dst: 192.168.2.252 (192.168.2.252)" size="20" pos="14">
    <field name="ip.version" showname="Version: 4" size="1" pos="14" show="4" value="45"/>
    <field name="ip.hdr_len" showname="Header length: 20 bytes" size="1" pos="14" show="20" value="45"/>
    <field name="ip.dsfield" showname="Differentiated Services Field: 0x00 (DSCP 0x00: Default; ECN: 0x00: Not-ECT (Not ECN-Capable Transport))" size="1" pos="15" show="0" value="00">
      <field name="ip.dsfield.dscp" showname="0000 00.. = Differentiated Services Codepoint: Default (0x00)" size="1" pos="15" show="0x00" value="0" unmaskedvalue="00"/>
      <field name="ip.dsfield.ecn" showname=".... ..00 = Explicit Congestion Notification: Not-ECT (Not ECN-Capable Transport) (0x00)" size="1" pos="15" show="0x00" value="0" unmaskedvalue="00"/>
    </field>
    <field name="ip.len" showname="Total Length: 196" size="2" pos="16" show="196" value="00c4"/>
    <field name="ip.id" showname="Identification: 0x0000 (0)" size="2" pos="18" show="0x0000" value="0000"/>
    <field name="ip.flags" showname="Flags: 0x02 (Don&apos;t Fragment)" size="1" pos="20" show="0x02" value="40">
      <field name="ip.flags.rb" showname="0... .... = Reserved bit: Not set" size="1" pos="20" show="0" value="40"/>
      <field name="ip.flags.df" showname=".1.. .... = Don&apos;t fragment: Set" size="1" pos="20" show="1" value="40"/>
      <field name="ip.flags.mf" showname="..0. .... = More fragments: Not set" size="1" pos="20" show="0" value="40"/>
    </field>
    <field name="ip.frag_offset" showname="Fragment offset: 0" size="2" pos="20" show="0" value="4000"/>
    <field name="ip.ttl" showname="Time to live: 64" size="1" pos="22" show="64" value="40"/>
    <field name="ip.proto" showname="Protocol: UDP (17)" size="1" pos="23" show="17" value="11"/>
    <field name="ip.checksum" showname="Header checksum: 0xb3cb [validation disabled]" size="2" pos="24" show="0xb3cb" value="b3cb">
      <field name="ip.checksum_good" showname="Good: False" size="2" pos="24" show="0" value="b3cb"/>
      <field name="ip.checksum_bad" showname="Bad: False" size="2" pos="24" show="0" value="b3cb"/>
    </field>
    <field name="ip.src" showname="Source: 192.168.2.17 (192.168.2.17)" size="4" pos="26" show="192.168.2.17" value="c0a80211"/>
    <field name="ip.addr" showname="Source or Destination Address: 192.168.2.17 (192.168.2.17)" hide="yes" size="4" pos="26" show="192.168.2.17" value="c0a80211"/>
    <field name="ip.src_host" showname="Source Host: 192.168.2.17" hide="yes" size="4" pos="26" show="192.168.2.17" value="c0a80211"/>
    <field name="ip.host" showname="Source or Destination Host: 192.168.2.17" hide="yes" size="4" pos="26" show="192.168.2.17" value="c0a80211"/>
    <field name="ip.dst" showname="Destination: 192.168.2.252 (192.168.2.252)" size="4" pos="30" show="192.168.2.252" value="c0a802fc"/>
    <field name="ip.addr" showname="Source or Destination Address: 192.168.2.252 (192.168.2.252)" hide="yes" size="4" pos="30" show="192.168.2.252" value="c0a802fc"/>
    <field name="ip.dst_host" showname="Destination Host: 192.168.2.252" hide="yes" size="4" pos="30" show="192.168.2.252" value="c0a802fc"/>
    <field name="ip.host" showname="Source or Destination Host: 192.168.2.252" hide="yes" size="4" pos="30" show="192.168.2.252" value="c0a802fc"/>
    <field name="" show="Source GeoIP: Unknown" size="4" pos="26" value="c0a80211"/>
    <field name="" show="Destination GeoIP: Unknown" size="4" pos="30" value="c0a802fc"/>
  </proto>
  <proto name="udp" showname="User Datagram Protocol, Src Port: kerberos (88), Dst Port: 52718 (52718)" size="8" pos="34">
    <field name="udp.srcport" showname="Source port: kerberos (88)" size="2" pos="34" show="88" value="0058"/>
    <field name="udp.dstport" showname="Destination port: 52718 (52718)" size="2" pos="36" show="52718" value="cdee"/>
    <field name="udp.port" showname="Source or Destination Port: 88" hide="yes" size="2" pos="34" show="88" value="0058"/>
    <field name="udp.port" showname="Source or Destination Port: 52718" hide="yes" size="2" pos="36" show="52718" value="cdee"/>
    <field name="udp.length" showname="Length: 176" size="2" pos="38" show="176" value="00b0"/>
    <field name="udp.checksum_coverage" showname="Checksum coverage: 176" hide="yes" size="0" pos="38" show="176"/>
    <field name="udp.checksum" showname="Checksum: 0x871f [validation disabled]" size="2" pos="40" show="0x871f" value="871f">
      <field name="udp.checksum_good" showname="Good Checksum: False" size="2" pos="40" show="0" value="871f"/>
      <field name="udp.checksum_bad" showname="Bad Checksum: False" size="2" pos="40" show="0" value="871f"/>
    </field>
  </proto>
  <proto name="kerberos" showname="Kerberos KRB-ERROR" size="168" pos="42">
    <field name="kerberos.pvno" showname="Pvno: 5" size="1" pos="52" show="5" value="05"/>
    <field name="kerberos.msg.type" showname="MSG Type: KRB-ERROR (30)" size="1" pos="57" show="30" value="1e"/>
    <field name="kerberos.ctime" showname="ctime: 2008-07-02 16:31:51 (UTC)" size="15" pos="62" show="2008-07-02 16:31:51 (UTC)" value="32303038303730323136333135315a"/>
    <field name="kerberos.stime" showname="stime: 2012-11-21 21:07:51 (UTC)" size="15" pos="81" show="2012-11-21 21:07:51 (UTC)" value="32303132313132313231303735315a"/>
    <field name="kerberos.susec" showname="susec: 349702" size="3" pos="100" show="349702" value="055606"/>
    <field name="kerberos.error_code" showname="error_code: KRB5KRB_AP_ERR_SKEW (37)" size="1" pos="107" show="37" value="25"/>
    <field name="kerberos.crealm" showname="Client Realm: EXAMPLE.COM" size="11" pos="112" show="EXAMPLE.COM" value="4558414d504c452e434f4d"/>
    <field name="kerberos.cname" showname="Client Name (Principal): user1" size="18" pos="125" show="" value="">
      <field name="kerberos.name_type" showname="Name-type: Principal (1)" size="1" pos="131" show="1" value="01"/>
      <field name="kerberos.name_string" showname="Name: user1" size="5" pos="138" show="user1" value="7573657231"/>
    </field>
    <field name="kerberos.realm" showname="Realm: EXAMPLE.COM" size="11" pos="147" show="EXAMPLE.COM" value="4558414d504c452e434f4d"/>
    <field name="kerberos.sname" showname="Server Name (Service and Instance): krbtgt/EXAMPLE.COM" size="32" pos="160" show="" value="">
      <field name="kerberos.name_type" showname="Name-type: Service and Instance (2)" size="1" pos="166" show="2" value="02"/>
      <field name="kerberos.name_string" showname="Name: krbtgt" size="6" pos="173" show="krbtgt" value="6b7262746774"/>
      <field name="kerberos.name_string" showname="Name: EXAMPLE.COM" size="11" pos="181" show="EXAMPLE.COM" value="4558414d504c452e434f4d"/>
    </field>
    <field name="kerberos.e_text" showname="e-text: PREAUTH_FAILED" size="14" pos="196" show="PREAUTH_FAILED" value="505245415554485f4641494c4544"/>
  </proto>
</packet>


<packet>
  <proto name="geninfo" pos="0" showname="General information" size="98">
    <field name="num" pos="0" show="15" showname="Number" value="f" size="98"/>
    <field name="len" pos="0" show="98" showname="Frame Length" value="62" size="98"/>
    <field name="caplen" pos="0" show="98" showname="Captured Length" value="62" size="98"/>
    <field name="timestamp" pos="0" show="Nov 21, 2012 22:08:02.776982000 CET" showname="Captured Time" value="1353532082.776982000" size="98"/>
  </proto>
  <proto name="frame" showname="Frame 15: 98 bytes on wire (784 bits), 98 bytes captured (784 bits)" size="98" pos="0">
    <field name="frame.encap_type" showname="Encapsulation type: Ethernet (1)" size="0" pos="0" show="1"/>
    <field name="frame.time" showname="Arrival Time: Nov 21, 2012 22:08:02.776982000 CET" size="0" pos="0" show="Nov 21, 2012 22:08:02.776982000"/>
    <field name="frame.offset_shift" showname="Time shift for this packet: 0.000000000 seconds" size="0" pos="0" show="0.000000000"/>
    <field name="frame.time_epoch" showname="Epoch Time: 1353532082.776982000 seconds" size="0" pos="0" show="1353532082.776982000"/>
    <field name="frame.time_delta" showname="Time delta from previous captured frame: 11.427019000 seconds" size="0" pos="0" show="11.427019000"/>
    <field name="frame.time_delta_displayed" showname="Time delta from previous displayed frame: 11.427019000 seconds" size="0" pos="0" show="11.427019000"/>
    <field name="frame.time_relative" showname="Time since reference or first frame: 13.285753000 seconds" size="0" pos="0" show="13.285753000"/>
    <field name="frame.number" showname="Frame Number: 15" size="0" pos="0" show="15"/>
    <field name="frame.len" showname="Frame Length: 98 bytes (784 bits)" size="0" pos="0" show="98"/>
    <field name="frame.cap_len" showname="Capture Length: 98 bytes (784 bits)" size="0" pos="0" show="98"/>
    <field name="frame.marked" showname="Frame is marked: False" size="0" pos="0" show="0"/>
    <field name="frame.ignored" showname="Frame is ignored: False" size="0" pos="0" show="0"/>
    <field name="frame.protocols" showname="Protocols in frame: eth:ip:udp:rpc" size="0" pos="0" show="eth:ip:udp:rpc"/>
  </proto>
  <proto name="eth" showname="Ethernet II, Src: Giga-Byt_7e:5d:d5 (00:24:1d:7e:5d:d5), Dst: CadmusCo_4d:1e:78 (08:00:27:4d:1e:78)" size="14" pos="0">
    <field name="eth.dst" showname="Destination: CadmusCo_4d:1e:78 (08:00:27:4d:1e:78)" size="6" pos="0" show="08:00:27:4d:1e:78" value="0800274d1e78">
      <field name="eth.addr" showname="Address: CadmusCo_4d:1e:78 (08:00:27:4d:1e:78)" size="6" pos="0" show="08:00:27:4d:1e:78" value="0800274d1e78"/>
      <field name="eth.lg" showname=".... ..0. .... .... .... .... = LG bit: Globally unique address (factory default)" size="3" pos="0" show="0" value="0" unmaskedvalue="080027"/>
      <field name="eth.ig" showname=".... ...0 .... .... .... .... = IG bit: Individual address (unicast)" size="3" pos="0" show="0" value="0" unmaskedvalue="080027"/>
    </field>
    <field name="eth.src" showname="Source: Giga-Byt_7e:5d:d5 (00:24:1d:7e:5d:d5)" size="6" pos="6" show="00:24:1d:7e:5d:d5" value="00241d7e5dd5">
      <field name="eth.addr" showname="Address: Giga-Byt_7e:5d:d5 (00:24:1d:7e:5d:d5)" size="6" pos="6" show="00:24:1d:7e:5d:d5" value="00241d7e5dd5"/>
      <field name="eth.lg" showname=".... ..0. .... .... .... .... = LG bit: Globally unique address (factory default)" size="3" pos="6" show="0" value="0" unmaskedvalue="00241d"/>
      <field name="eth.ig" showname=".... ...0 .... .... .... .... = IG bit: Individual address (unicast)" size="3" pos="6" show="0" value="0" unmaskedvalue="00241d"/>
    </field>
    <field name="eth.type" showname="Type: IP (0x0800)" size="2" pos="12" show="0x0800" value="0800"/>
  </proto>
  <proto name="ip" showname="Internet Protocol Version 4, Src: 192.168.2.252 (192.168.2.252), Dst: 192.168.2.17 (192.168.2.17)" size="20" pos="14">
    <field name="ip.version" showname="Version: 4" size="1" pos="14" show="4" value="45"/>
    <field name="ip.hdr_len" showname="Header length: 20 bytes" size="1" pos="14" show="20" value="45"/>
    <field name="ip.dsfield" showname="Differentiated Services Field: 0x00 (DSCP 0x00: Default; ECN: 0x00: Not-ECT (Not ECN-Capable Transport))" size="1" pos="15" show="0" value="00">
      <field name="ip.dsfield.dscp" showname="0000 00.. = Differentiated Services Codepoint: Default (0x00)" size="1" pos="15" show="0x00" value="0" unmaskedvalue="00"/>
      <field name="ip.dsfield.ecn" showname=".... ..00 = Explicit Congestion Notification: Not-ECT (Not ECN-Capable Transport) (0x00)" size="1" pos="15" show="0x00" value="0" unmaskedvalue="00"/>
    </field>
    <field name="ip.len" showname="Total Length: 84" size="2" pos="16" show="84" value="0054"/>
    <field name="ip.id" showname="Identification: 0x0000 (0)" size="2" pos="18" show="0x0000" value="0000"/>
    <field name="ip.flags" showname="Flags: 0x02 (Don&apos;t Fragment)" size="1" pos="20" show="0x02" value="40">
      <field name="ip.flags.rb" showname="0... .... = Reserved bit: Not set" size="1" pos="20" show="0" value="40"/>
      <field name="ip.flags.df" showname=".1.. .... = Don&apos;t fragment: Set" size="1" pos="20" show="1" value="40"/>
      <field name="ip.flags.mf" showname="..0. .... = More fragments: Not set" size="1" pos="20" show="0" value="40"/>
    </field>
    <field name="ip.frag_offset" showname="Fragment offset: 0" size="2" pos="20" show="0" value="4000"/>
    <field name="ip.ttl" showname="Time to live: 64" size="1" pos="22" show="64" value="40"/>
    <field name="ip.proto" showname="Protocol: UDP (17)" size="1" pos="23" show="17" value="11"/>
    <field name="ip.checksum" showname="Header checksum: 0xb43b [validation disabled]" size="2" pos="24" show="0xb43b" value="b43b">
      <field name="ip.checksum_good" showname="Good: False" size="2" pos="24" show="0" value="b43b"/>
      <field name="ip.checksum_bad" showname="Bad: False" size="2" pos="24" show="0" value="b43b"/>
    </field>
    <field name="ip.src" showname="Source: 192.168.2.252 (192.168.2.252)" size="4" pos="26" show="192.168.2.252" value="c0a802fc"/>
    <field name="ip.addr" showname="Source or Destination Address: 192.168.2.252 (192.168.2.252)" hide="yes" size="4" pos="26" show="192.168.2.252" value="c0a802fc"/>
    <field name="ip.src_host" showname="Source Host: 192.168.2.252" hide="yes" size="4" pos="26" show="192.168.2.252" value="c0a802fc"/>
    <field name="ip.host" showname="Source or Destination Host: 192.168.2.252" hide="yes" size="4" pos="26" show="192.168.2.252" value="c0a802fc"/>
    <field name="ip.dst" showname="Destination: 192.168.2.17 (192.168.2.17)" size="4" pos="30" show="192.168.2.17" value="c0a80211"/>
    <field name="ip.addr" showname="Source or Destination Address: 192.168.2.17 (192.168.2.17)" hide="yes" size="4" pos="30" show="192.168.2.17" value="c0a80211"/>
    <field name="ip.dst_host" showname="Destination Host: 192.168.2.17" hide="yes" size="4" pos="30" show="192.168.2.17" value="c0a80211"/>
    <field name="ip.host" showname="Source or Destination Host: 192.168.2.17" hide="yes" size="4" pos="30" show="192.168.2.17" value="c0a80211"/>
    <field name="" show="Source GeoIP: Unknown" size="4" pos="26" value="c0a802fc"/>
    <field name="" show="Destination GeoIP: Unknown" size="4" pos="30" value="c0a80211"/>
  </proto>
  <proto name="udp" showname="User Datagram Protocol, Src Port: 871 (871), Dst Port: omirr (808)" size="8" pos="34">
    <field name="udp.srcport" showname="Source port: 871 (871)" size="2" pos="34" show="871" value="0367"/>
    <field name="udp.dstport" showname="Destination port: omirr (808)" size="2" pos="36" show="808" value="0328"/>
    <field name="udp.port" showname="Source or Destination Port: 871" hide="yes" size="2" pos="34" show="871" value="0367"/>
    <field name="udp.port" showname="Source or Destination Port: 808" hide="yes" size="2" pos="36" show="808" value="0328"/>
    <field name="udp.length" showname="Length: 64" size="2" pos="38" show="64" value="0040"/>
    <field name="udp.checksum_coverage" showname="Checksum coverage: 64" hide="yes" size="0" pos="38" show="64"/>
    <field name="udp.checksum" showname="Checksum: 0x3145 [validation disabled]" size="2" pos="40" show="0x3145" value="3145">
      <field name="udp.checksum_good" showname="Good Checksum: False" size="2" pos="40" show="0" value="3145"/>
      <field name="udp.checksum_bad" showname="Bad Checksum: False" size="2" pos="40" show="0" value="3145"/>
    </field>
  </proto>
  <proto name="rpc" showname="Remote Procedure Call, Type:Call XID:0x23d5ea41" size="40" pos="42">
    <field name="rpc.xid" showname="XID: 0x23d5ea41 (601221697)" size="4" pos="42" show="0x23d5ea41" value="23d5ea41"/>
    <field name="rpc.msgtyp" showname="Message Type: Call (0)" size="4" pos="46" show="0" value="00000000"/>
    <field name="rpc.version" showname="RPC Version: 2" size="4" pos="50" show="2" value="00000002"/>
    <field name="rpc.program" showname="Program: YPSERV (100004)" size="4" pos="54" show="100004" value="000186a4"/>
    <field name="rpc.programversion" showname="Program Version: 2" size="4" pos="58" show="2" value="00000002"/>
    <field name="rpc.procedure" showname="Procedure: DOMAIN (1)" size="4" pos="62" show="1" value="00000001"/>
    <field name="rpc.reqframe" showname="The reply to this request is in frame 16" size="0" pos="42" show="16"/>
    <field name="" show="Credentials" size="8" pos="66" value="0000000000000000">
      <field name="rpc.auth.flavor" showname="Flavor: AUTH_NULL (0)" size="4" pos="66" show="0" value="00000000"/>
      <field name="rpc.auth.length" showname="Length: 0" size="4" pos="70" show="0" value="00000000"/>
    </field>
    <field name="" show="Verifier" size="8" pos="74" value="0000000000000000">
      <field name="rpc.auth.flavor" showname="Flavor: AUTH_NULL (0)" size="4" pos="74" show="0" value="00000000"/>
      <field name="rpc.auth.length" showname="Length: 0" size="4" pos="78" show="0" value="00000000"/>
    </field>
  </proto>
  <proto name="ypserv" showname="Yellow Pages Service DOMAIN call" size="16" pos="82">
    <field name="rpc.programversion" showname="Program Version: 2" size="0" pos="124" show="2"/>
    <field name="ypserv.procedure_v2" showname="V2 Procedure: DOMAIN (1)" size="0" pos="124" show="1"/>
    <field name="" show="Domain: EXAMPLE.COM" size="16" pos="82" value="0000000b4558414d504c452e434f4d00">
      <field name="" show="length: 11" size="4" pos="82" value="0000000b"/>
      <field name="ypserv.domain" showname="contents: EXAMPLE.COM" size="11" pos="86" show="EXAMPLE.COM" value="4558414d504c452e434f4d"/>
      <field name="" show="fill bytes: opaque data" size="1" pos="97" value="00"/>
    </field>
  </proto>
</packet>


<packet>
  <proto name="geninfo" pos="0" showname="General information" size="70">
    <field name="num" pos="0" show="16" showname="Number" value="10" size="70"/>
    <field name="len" pos="0" show="70" showname="Frame Length" value="46" size="70"/>
    <field name="caplen" pos="0" show="70" showname="Captured Length" value="46" size="70"/>
    <field name="timestamp" pos="0" show="Nov 21, 2012 22:08:02.777319000 CET" showname="Captured Time" value="1353532082.777319000" size="70"/>
  </proto>
  <proto name="frame" showname="Frame 16: 70 bytes on wire (560 bits), 70 bytes captured (560 bits)" size="70" pos="0">
    <field name="frame.encap_type" showname="Encapsulation type: Ethernet (1)" size="0" pos="0" show="1"/>
    <field name="frame.time" showname="Arrival Time: Nov 21, 2012 22:08:02.777319000 CET" size="0" pos="0" show="Nov 21, 2012 22:08:02.777319000"/>
    <field name="frame.offset_shift" showname="Time shift for this packet: 0.000000000 seconds" size="0" pos="0" show="0.000000000"/>
    <field name="frame.time_epoch" showname="Epoch Time: 1353532082.777319000 seconds" size="0" pos="0" show="1353532082.777319000"/>
    <field name="frame.time_delta" showname="Time delta from previous captured frame: 0.000337000 seconds" size="0" pos="0" show="0.000337000"/>
    <field name="frame.time_delta_displayed" showname="Time delta from previous displayed frame: 0.000337000 seconds" size="0" pos="0" show="0.000337000"/>
    <field name="frame.time_relative" showname="Time since reference or first frame: 13.286090000 seconds" size="0" pos="0" show="13.286090000"/>
    <field name="frame.number" showname="Frame Number: 16" size="0" pos="0" show="16"/>
    <field name="frame.len" showname="Frame Length: 70 bytes (560 bits)" size="0" pos="0" show="70"/>
    <field name="frame.cap_len" showname="Capture Length: 70 bytes (560 bits)" size="0" pos="0" show="70"/>
    <field name="frame.marked" showname="Frame is marked: False" size="0" pos="0" show="0"/>
    <field name="frame.ignored" showname="Frame is ignored: False" size="0" pos="0" show="0"/>
    <field name="frame.protocols" showname="Protocols in frame: eth:ip:udp:rpc" size="0" pos="0" show="eth:ip:udp:rpc"/>
  </proto>
  <proto name="eth" showname="Ethernet II, Src: CadmusCo_4d:1e:78 (08:00:27:4d:1e:78), Dst: Giga-Byt_7e:5d:d5 (00:24:1d:7e:5d:d5)" size="14" pos="0">
    <field name="eth.dst" showname="Destination: Giga-Byt_7e:5d:d5 (00:24:1d:7e:5d:d5)" size="6" pos="0" show="00:24:1d:7e:5d:d5" value="00241d7e5dd5">
      <field name="eth.addr" showname="Address: Giga-Byt_7e:5d:d5 (00:24:1d:7e:5d:d5)" size="6" pos="0" show="00:24:1d:7e:5d:d5" value="00241d7e5dd5"/>
      <field name="eth.lg" showname=".... ..0. .... .... .... .... = LG bit: Globally unique address (factory default)" size="3" pos="0" show="0" value="0" unmaskedvalue="00241d"/>
      <field name="eth.ig" showname=".... ...0 .... .... .... .... = IG bit: Individual address (unicast)" size="3" pos="0" show="0" value="0" unmaskedvalue="00241d"/>
    </field>
    <field name="eth.src" showname="Source: CadmusCo_4d:1e:78 (08:00:27:4d:1e:78)" size="6" pos="6" show="08:00:27:4d:1e:78" value="0800274d1e78">
      <field name="eth.addr" showname="Address: CadmusCo_4d:1e:78 (08:00:27:4d:1e:78)" size="6" pos="6" show="08:00:27:4d:1e:78" value="0800274d1e78"/>
      <field name="eth.lg" showname=".... ..0. .... .... .... .... = LG bit: Globally unique address (factory default)" size="3" pos="6" show="0" value="0" unmaskedvalue="080027"/>
      <field name="eth.ig" showname=".... ...0 .... .... .... .... = IG bit: Individual address (unicast)" size="3" pos="6" show="0" value="0" unmaskedvalue="080027"/>
    </field>
    <field name="eth.type" showname="Type: IP (0x0800)" size="2" pos="12" show="0x0800" value="0800"/>
  </proto>
  <proto name="ip" showname="Internet Protocol Version 4, Src: 192.168.2.17 (192.168.2.17), Dst: 192.168.2.252 (192.168.2.252)" size="20" pos="14">
    <field name="ip.version" showname="Version: 4" size="1" pos="14" show="4" value="45"/>
    <field name="ip.hdr_len" showname="Header length: 20 bytes" size="1" pos="14" show="20" value="45"/>
    <field name="ip.dsfield" showname="Differentiated Services Field: 0x00 (DSCP 0x00: Default; ECN: 0x00: Not-ECT (Not ECN-Capable Transport))" size="1" pos="15" show="0" value="00">
      <field name="ip.dsfield.dscp" showname="0000 00.. = Differentiated Services Codepoint: Default (0x00)" size="1" pos="15" show="0x00" value="0" unmaskedvalue="00"/>
      <field name="ip.dsfield.ecn" showname=".... ..00 = Explicit Congestion Notification: Not-ECT (Not ECN-Capable Transport) (0x00)" size="1" pos="15" show="0x00" value="0" unmaskedvalue="00"/>
    </field>
    <field name="ip.len" showname="Total Length: 56" size="2" pos="16" show="56" value="0038"/>
    <field name="ip.id" showname="Identification: 0x0000 (0)" size="2" pos="18" show="0x0000" value="0000"/>
    <field name="ip.flags" showname="Flags: 0x02 (Don&apos;t Fragment)" size="1" pos="20" show="0x02" value="40">
      <field name="ip.flags.rb" showname="0... .... = Reserved bit: Not set" size="1" pos="20" show="0" value="40"/>
      <field name="ip.flags.df" showname=".1.. .... = Don&apos;t fragment: Set" size="1" pos="20" show="1" value="40"/>
      <field name="ip.flags.mf" showname="..0. .... = More fragments: Not set" size="1" pos="20" show="0" value="40"/>
    </field>
    <field name="ip.frag_offset" showname="Fragment offset: 0" size="2" pos="20" show="0" value="4000"/>
    <field name="ip.ttl" showname="Time to live: 64" size="1" pos="22" show="64" value="40"/>
    <field name="ip.proto" showname="Protocol: UDP (17)" size="1" pos="23" show="17" value="11"/>
    <field name="ip.checksum" showname="Header checksum: 0xb457 [validation disabled]" size="2" pos="24" show="0xb457" value="b457">
      <field name="ip.checksum_good" showname="Good: False" size="2" pos="24" show="0" value="b457"/>
      <field name="ip.checksum_bad" showname="Bad: False" size="2" pos="24" show="0" value="b457"/>
    </field>
    <field name="ip.src" showname="Source: 192.168.2.17 (192.168.2.17)" size="4" pos="26" show="192.168.2.17" value="c0a80211"/>
    <field name="ip.addr" showname="Source or Destination Address: 192.168.2.17 (192.168.2.17)" hide="yes" size="4" pos="26" show="192.168.2.17" value="c0a80211"/>
    <field name="ip.src_host" showname="Source Host: 192.168.2.17" hide="yes" size="4" pos="26" show="192.168.2.17" value="c0a80211"/>
    <field name="ip.host" showname="Source or Destination Host: 192.168.2.17" hide="yes" size="4" pos="26" show="192.168.2.17" value="c0a80211"/>
    <field name="ip.dst" showname="Destination: 192.168.2.252 (192.168.2.252)" size="4" pos="30" show="192.168.2.252" value="c0a802fc"/>
    <field name="ip.addr" showname="Source or Destination Address: 192.168.2.252 (192.168.2.252)" hide="yes" size="4" pos="30" show="192.168.2.252" value="c0a802fc"/>
    <field name="ip.dst_host" showname="Destination Host: 192.168.2.252" hide="yes" size="4" pos="30" show="192.168.2.252" value="c0a802fc"/>
    <field name="ip.host" showname="Source or Destination Host: 192.168.2.252" hide="yes" size="4" pos="30" show="192.168.2.252" value="c0a802fc"/>
    <field name="" show="Source GeoIP: Unknown" size="4" pos="26" value="c0a80211"/>
    <field name="" show="Destination GeoIP: Unknown" size="4" pos="30" value="c0a802fc"/>
  </proto>
  <proto name="udp" showname="User Datagram Protocol, Src Port: omirr (808), Dst Port: 871 (871)" size="8" pos="34">
    <field name="udp.srcport" showname="Source port: omirr (808)" size="2" pos="34" show="808" value="0328"/>
    <field name="udp.dstport" showname="Destination port: 871 (871)" size="2" pos="36" show="871" value="0367"/>
    <field name="udp.port" showname="Source or Destination Port: 808" hide="yes" size="2" pos="34" show="808" value="0328"/>
    <field name="udp.port" showname="Source or Destination Port: 871" hide="yes" size="2" pos="36" show="871" value="0367"/>
    <field name="udp.length" showname="Length: 36" size="2" pos="38" show="36" value="0024"/>
    <field name="udp.checksum_coverage" showname="Checksum coverage: 36" hide="yes" size="0" pos="38" show="36"/>
    <field name="udp.checksum" showname="Checksum: 0x8693 [validation disabled]" size="2" pos="40" show="0x8693" value="8693">
      <field name="udp.checksum_good" showname="Good Checksum: False" size="2" pos="40" show="0" value="8693"/>
      <field name="udp.checksum_bad" showname="Bad Checksum: False" size="2" pos="40" show="0" value="8693"/>
    </field>
  </proto>
  <proto name="rpc" showname="Remote Procedure Call, Type:Reply XID:0x23d5ea41" size="24" pos="42">
    <field name="rpc.xid" showname="XID: 0x23d5ea41 (601221697)" size="4" pos="42" show="0x23d5ea41" value="23d5ea41"/>
    <field name="rpc.msgtyp" showname="Message Type: Reply (1)" size="4" pos="46" show="1" value="00000001"/>
    <field name="rpc.program" showname="Program: YPSERV (100004)" size="0" pos="42" show="100004"/>
    <field name="rpc.programversion" showname="Program Version: 2" size="0" pos="42" show="2"/>
    <field name="rpc.procedure" showname="Procedure: DOMAIN (1)" size="0" pos="42" show="1"/>
    <field name="rpc.replystat" showname="Reply State: accepted (0)" size="4" pos="50" show="0" value="00000000"/>
    <field name="rpc.repframe" showname="This is a reply to a request in frame 15" size="0" pos="42" show="15"/>
    <field name="rpc.time" showname="Time from request: 0.000337000 seconds" size="0" pos="54" show="0.000337000"/>
    <field name="" show="Verifier" size="8" pos="54" value="0000000000000000">
      <field name="rpc.auth.flavor" showname="Flavor: AUTH_NULL (0)" size="4" pos="54" show="0" value="00000000"/>
      <field name="rpc.auth.length" showname="Length: 0" size="4" pos="58" show="0" value="00000000"/>
    </field>
    <field name="rpc.state_accept" showname="Accept State: RPC executed successfully (0)" size="4" pos="62" show="0" value="00000000"/>
  </proto>
  <proto name="ypserv" showname="Yellow Pages Service DOMAIN reply" size="4" pos="66">
    <field name="rpc.programversion" showname="Program Version: 2" size="0" pos="108" show="2"/>
    <field name="ypserv.procedure_v2" showname="V2 Procedure: DOMAIN (1)" size="0" pos="108" show="1"/>
    <field name="ypserv.servesdomain" showname="Serves Domain: Yes" size="4" pos="66" show="1" value="00000001"/>
  </proto>
</packet>


</pdml>
